###############################################################################
#                                                                             #
# IAR C/C++ Compiler V8.10.1.10194/W32 for 8051         08/Dec/2021  21:46:56 #
# Copyright 2004-2011 IAR Systems AB.                                         #
#                                                                             #
#    Core               =  plain                                              #
#    Code model         =  banked                                             #
#    Data model         =  large                                              #
#    Calling convention =  xdata reentrant                                    #
#    Constant location  =  data_rom                                           #
#    Dptr setup         =  1,16                                               #
#    Source file        =  D:\developer_tool_install\IAR\ZStack-CC2530-2.5.1a #
#                          \Projects\zstack\Samples\SMGW\Source\livingRoom.c  #
#    Command line       =  -f D:\developer_tool_install\IAR\ZStack-CC2530-2.5 #
#                          .1a\Projects\zstack\Samples\SMGW\CC2530DB\..\..\.. #
#                          \Tools\CC2530DB\f8wEndev.cfg (-DCPU32MHZ           #
#                          -DROOT=__near_func -DMAC_CFG_TX_DATA_MAX=3         #
#                          -DMAC_CFG_TX_MAX=6 -DMAC_CFG_RX_MAX=3) -f          #
#                          D:\developer_tool_install\IAR\ZStack-CC2530-2.5.1a #
#                          \Projects\zstack\Samples\SMGW\CC2530DB\..\..\..\To #
#                          ols\CC2530DB\f8wConfig.cfg (-DZIGBEEPRO            #
#                          -DSECURE=0 -DZG_SECURE_DYNAMIC=0 -DREFLECTOR       #
#                          -DDEFAULT_CHANLIST=0x00010000                      #
#                          -DZDAPP_CONFIG_PAN_ID=0xFFF3                       #
#                          -DNWK_START_DELAY=100 -DEXTENDED_JOINING_RANDOM_MA #
#                          SK=0x007F -DBEACON_REQUEST_DELAY=100               #
#                          -DBEACON_REQ_DELAY_MASK=0x00FF                     #
#                          -DLINK_STATUS_JITTER_MASK=0x007F                   #
#                          -DROUTE_EXPIRY_TIME=30 -DAPSC_ACK_WAIT_DURATION_PO #
#                          LLED=3000 -DNWK_INDIRECT_MSG_TIMEOUT=7             #
#                          -DMAX_RREQ_ENTRIES=8 -DAPSC_MAX_FRAME_RETRIES=3    #
#                          -DNWK_MAX_DATA_RETRIES=2                           #
#                          -DMAX_POLL_FAILURE_RETRIES=2 -DMAX_BCAST=9         #
#                          -DAPS_MAX_GROUPS=16 -DMAX_RTG_ENTRIES=40           #
#                          -DNWK_MAX_BINDING_ENTRIES=4                        #
#                          -DMAX_BINDING_CLUSTER_IDS=4 "-DDEFAULT_KEY={0x01,  #
#                          0x03, 0x05, 0x07, 0x09, 0x0B, 0x0D, 0x0F, 0x00,    #
#                          0x02, 0x04, 0x06, 0x08, 0x0A, 0x0C, 0x0D}"         #
#                          -DMAC_MAX_FRAME_SIZE=116                           #
#                          -DZDNWKMGR_MIN_TRANSMISSIONS=20 "-DCONST=const     #
#                          __code" -DGENERIC=__generic                        #
#                          -DRFD_RCVC_ALWAYS_ON=FALSE -DPOLL_RATE=1000        #
#                          -DQUEUED_POLL_RATE=100 -DRESPONSE_POLL_RATE=100)   #
#                          -DREJOIN_POLL_RATE=440 D:\developer_tool_install\I #
#                          AR\ZStack-CC2530-2.5.1a\Projects\zstack\Samples\SM #
#                          GW\Source\livingRoom.c -D xNWK_AUTO_POLL -D        #
#                          ZTOOL_P1 -D xRFD_RCVC_ALWAYS_ON=TRUE -D xMT_TASK   #
#                          -D xMT_SYS_FUNC -D xMT_ZDO_FUNC -D                 #
#                          xLCD_SUPPORTED=DEBUG -D xPOWER_SAVING -lC          #
#                          D:\developer_tool_install\IAR\ZStack-CC2530-2.5.1a #
#                          \Projects\zstack\Samples\SMGW\CC2530DB\livingRoom\ #
#                          List\ -lA D:\developer_tool_install\IAR\ZStack-CC2 #
#                          530-2.5.1a\Projects\zstack\Samples\SMGW\CC2530DB\l #
#                          ivingRoom\List\ --diag_suppress Pe001,Pa010 -o     #
#                          D:\developer_tool_install\IAR\ZStack-CC2530-2.5.1a #
#                          \Projects\zstack\Samples\SMGW\CC2530DB\livingRoom\ #
#                          Obj\ -e --no_code_motion --debug --core=plain      #
#                          --dptr=16,1 --data_model=large                     #
#                          --code_model=banked --calling_convention=xdata_ree #
#                          ntrant --place_constants=data_rom                  #
#                          --nr_virtual_regs 16 -I D:\developer_tool_install\ #
#                          IAR\ZStack-CC2530-2.5.1a\Projects\zstack\Samples\S #
#                          MGW\CC2530DB\ -I D:\developer_tool_install\IAR\ZSt #
#                          ack-CC2530-2.5.1a\Projects\zstack\Samples\SMGW\CC2 #
#                          530DB\..\Source\ -I D:\developer_tool_install\IAR\ #
#                          ZStack-CC2530-2.5.1a\Projects\zstack\Samples\SMGW\ #
#                          CC2530DB\..\..\..\ZMain\TI2530DB\ -I               #
#                          D:\developer_tool_install\IAR\ZStack-CC2530-2.5.1a #
#                          \Projects\zstack\Samples\SMGW\CC2530DB\..\..\..\.. #
#                          \..\Components\hal\include\ -I                     #
#                          D:\developer_tool_install\IAR\ZStack-CC2530-2.5.1a #
#                          \Projects\zstack\Samples\SMGW\CC2530DB\..\..\..\.. #
#                          \..\Components\hal\target\CC2530EB\ -I             #
#                          D:\developer_tool_install\IAR\ZStack-CC2530-2.5.1a #
#                          \Projects\zstack\Samples\SMGW\CC2530DB\..\..\..\.. #
#                          \..\Components\mac\include\ -I                     #
#                          D:\developer_tool_install\IAR\ZStack-CC2530-2.5.1a #
#                          \Projects\zstack\Samples\SMGW\CC2530DB\..\..\..\.. #
#                          \..\Components\mac\high_level\ -I                  #
#                          D:\developer_tool_install\IAR\ZStack-CC2530-2.5.1a #
#                          \Projects\zstack\Samples\SMGW\CC2530DB\..\..\..\.. #
#                          \..\Components\mac\low_level\srf04\ -I             #
#                          D:\developer_tool_install\IAR\ZStack-CC2530-2.5.1a #
#                          \Projects\zstack\Samples\SMGW\CC2530DB\..\..\..\.. #
#                          \..\Components\mac\low_level\srf04\single_chip\    #
#                          -I D:\developer_tool_install\IAR\ZStack-CC2530-2.5 #
#                          .1a\Projects\zstack\Samples\SMGW\CC2530DB\..\..\.. #
#                          \..\..\Components\mt\ -I                           #
#                          D:\developer_tool_install\IAR\ZStack-CC2530-2.5.1a #
#                          \Projects\zstack\Samples\SMGW\CC2530DB\..\..\..\.. #
#                          \..\Components\osal\include\ -I                    #
#                          D:\developer_tool_install\IAR\ZStack-CC2530-2.5.1a #
#                          \Projects\zstack\Samples\SMGW\CC2530DB\..\..\..\.. #
#                          \..\Components\services\saddr\ -I                  #
#                          D:\developer_tool_install\IAR\ZStack-CC2530-2.5.1a #
#                          \Projects\zstack\Samples\SMGW\CC2530DB\..\..\..\.. #
#                          \..\Components\services\sdata\ -I                  #
#                          D:\developer_tool_install\IAR\ZStack-CC2530-2.5.1a #
#                          \Projects\zstack\Samples\SMGW\CC2530DB\..\..\..\.. #
#                          \..\Components\stack\af\ -I                        #
#                          D:\developer_tool_install\IAR\ZStack-CC2530-2.5.1a #
#                          \Projects\zstack\Samples\SMGW\CC2530DB\..\..\..\.. #
#                          \..\Components\stack\nwk\ -I                       #
#                          D:\developer_tool_install\IAR\ZStack-CC2530-2.5.1a #
#                          \Projects\zstack\Samples\SMGW\CC2530DB\..\..\..\.. #
#                          \..\Components\stack\sapi\ -I                      #
#                          D:\developer_tool_install\IAR\ZStack-CC2530-2.5.1a #
#                          \Projects\zstack\Samples\SMGW\CC2530DB\..\..\..\.. #
#                          \..\Components\stack\sec\ -I                       #
#                          D:\developer_tool_install\IAR\ZStack-CC2530-2.5.1a #
#                          \Projects\zstack\Samples\SMGW\CC2530DB\..\..\..\.. #
#                          \..\Components\stack\sys\ -I                       #
#                          D:\developer_tool_install\IAR\ZStack-CC2530-2.5.1a #
#                          \Projects\zstack\Samples\SMGW\CC2530DB\..\..\..\.. #
#                          \..\Components\stack\zdo\ -I                       #
#                          D:\developer_tool_install\IAR\ZStack-CC2530-2.5.1a #
#                          \Projects\zstack\Samples\SMGW\CC2530DB\..\..\..\.. #
#                          \..\Components\zmac\ -I D:\developer_tool_install\ #
#                          IAR\ZStack-CC2530-2.5.1a\Projects\zstack\Samples\S #
#                          MGW\CC2530DB\..\..\..\..\..\Components\zmac\f8w\   #
#                          -Ohz --require_prototypes                          #
#    List file          =  D:\developer_tool_install\IAR\ZStack-CC2530-2.5.1a #
#                          \Projects\zstack\Samples\SMGW\CC2530DB\livingRoom\ #
#                          List\livingRoom.lst                                #
#    Object file        =  D:\developer_tool_install\IAR\ZStack-CC2530-2.5.1a #
#                          \Projects\zstack\Samples\SMGW\CC2530DB\livingRoom\ #
#                          Obj\livingRoom.r51                                 #
#                                                                             #
#                                                                             #
###############################################################################

D:\developer_tool_install\IAR\ZStack-CC2530-2.5.1a\Projects\zstack\Samples\SMGW\Source\livingRoom.c
      1          #include "livingRoom.h"

   \                                 In  segment SFR_AN, at 0x80
   \   union <unnamed> volatile __sfr _A_P0
   \                     _A_P0:
   \   000000                DS 1

   \                                 In  segment SFR_AN, at 0xfd
   \   unsigned char volatile __sfr P0DIR
   \                     P0DIR:
   \   000000                DS 1

   \                                 In  segment XDATA_I, align 1, keep-with-next
   \   uint8 ledIdList[2]
   \                     ledIdList:
   \   000000                DS 2
   \   000002                REQUIRE `?<Initializer for ledIdList>`
   \   000002                REQUIRE __INIT_XDATA_I

   \                                 In  segment XDATA_ROM_C, align 1
   \   unsigned short const __xdata_rom livingRoomDeviceInputCommandList[6]
   \                     livingRoomDeviceInputCommandList:
   \   000000   0100         DW 1
   \   000002   0200         DW 2
   \   000004   0300         DW 3
   \   000006   0400         DW 4
   \   000008   0500         DW 5
   \   00000A   0600         DW 6

   \                                 In  segment XDATA_ROM_C, align 1
   \   unsigned short const __xdata_rom livingRoomDeviceOutputCommandList[3]
   \                     livingRoomDeviceOutputCommandList:
   \   000000   0100         DW 1
   \   000002   0300         DW 3
   \   000004   0400         DW 4

   \                                 In  segment XDATA_ROM_C, align 1
   \   struct <unnamed> const __xdata_rom zb_SimpleDesc
   \                     zb_SimpleDesc:
   \   000000   01           DB 1
   \   000001   0105         DW 1281
   \   000003   0200         DW 2
   \   000005   00           DB 0
   \   000006   06           DB 6
   \   000007   ....         DW livingRoomDeviceInputCommandList
   \   000009   03           DB 3
   \   00000A   ....         DW livingRoomDeviceOutputCommandList

   \                                 In  segment XDATA_Z, align 1, keep-with-next
   \   uint8 Overtime_counter
   \                     Overtime_counter:
   \   000000                DS 1
   \   000001                REQUIRE __INIT_XDATA_Z

   \                                 In  segment XDATA_Z, align 1, keep-with-next
   \   uint8 bit_value
   \                     bit_value:
   \   000000                DS 1
   \   000001                REQUIRE __INIT_XDATA_Z

   \                                 In  segment XDATA_Z, align 1, keep-with-next
   \   uint8 T_data_H
   \                     T_data_H:
   \   000000                DS 1
   \   000001                REQUIRE __INIT_XDATA_Z

   \                                 In  segment XDATA_Z, align 1, keep-with-next
   \   uint8 T_data_L
   \                     T_data_L:
   \   000000                DS 1
   \   000001                REQUIRE __INIT_XDATA_Z

   \                                 In  segment XDATA_Z, align 1, keep-with-next
   \   uint8 RH_data_H
   \                     RH_data_H:
   \   000000                DS 1
   \   000001                REQUIRE __INIT_XDATA_Z

   \                                 In  segment XDATA_Z, align 1, keep-with-next
   \   uint8 RH_data_L
   \                     RH_data_L:
   \   000000                DS 1
   \   000001                REQUIRE __INIT_XDATA_Z

   \                                 In  segment XDATA_Z, align 1, keep-with-next
   \   uint8 checkdata
   \                     checkdata:
   \   000000                DS 1
   \   000001                REQUIRE __INIT_XDATA_Z

   \                                 In  segment XDATA_Z, align 1, keep-with-next
   \   uint8 T_data_H_temp
   \                     T_data_H_temp:
   \   000000                DS 1
   \   000001                REQUIRE __INIT_XDATA_Z

   \                                 In  segment XDATA_Z, align 1, keep-with-next
   \   uint8 T_data_L_temp
   \                     T_data_L_temp:
   \   000000                DS 1
   \   000001                REQUIRE __INIT_XDATA_Z

   \                                 In  segment XDATA_Z, align 1, keep-with-next
   \   uint8 RH_data_H_temp
   \                     RH_data_H_temp:
   \   000000                DS 1
   \   000001                REQUIRE __INIT_XDATA_Z

   \                                 In  segment XDATA_Z, align 1, keep-with-next
   \   uint8 RH_data_L_temp
   \                     RH_data_L_temp:
   \   000000                DS 1
   \   000001                REQUIRE __INIT_XDATA_Z

   \                                 In  segment XDATA_Z, align 1, keep-with-next
   \   uint8 checkdata_temp
   \                     checkdata_temp:
   \   000000                DS 1
   \   000001                REQUIRE __INIT_XDATA_Z

   \                                 In  segment XDATA_Z, align 1, keep-with-next
   \   uint8 comdata
   \                     comdata:
   \   000000                DS 1
   \   000001                REQUIRE __INIT_XDATA_Z
      2          
      3          /*****************从DHT11读取一个字节函数******************/        

   \                                 In  segment BANKED_CODE, align 1, keep-with-next
      4          void  Read_Byte(void)
   \                     Read_Byte:
      5          {
   \   000000   74F7         MOV     A,#-0x9
   \   000002   12....       LCALL   ?BANKED_ENTER_XDATA
   \   000005                ; Saved register size: 9
   \   000005                ; Auto size: 0
      6            uint8 i;
      7            for (i = 0; i < 8; i++)                     //循环8次，读取8bit的数据
   \   000005   7E08         MOV     R6,#0x8
      8            {
      9              Overtime_counter = 2;                          //读取并等待DHT11发出的12-14us低电平开始信号
   \                     ??Read_Byte_0:
   \   000007   90....       MOV     DPTR,#Overtime_counter
   \   00000A   7402         MOV     A,#0x2
   \   00000C   F0           MOVX    @DPTR,A
     10              P0DIR &= ~0x10;
   \   00000D   53FDEF       ANL     0xfd,#0xef
     11              while ((!DHT11_DATA) && Overtime_counter++);
   \                     ??Read_Byte_1:
   \   000010   A284         MOV     C,0x80.4
   \   000012   4005         JC      ??Read_Byte_2
   \   000014   12....       LCALL   ?Subroutine2 & 0xFFFF
   \                     ??CrossCallReturnLabel_0:
   \   000017   70F7         JNZ     ??Read_Byte_1
     12              //Delay_10us(80);                   //26-28us的低电平判断门限
     13              MicroWait(27);
   \                     ??Read_Byte_2:
   \   000019                ; Setup parameters for call to function Onboard_wait
   \   000019   7A1B         MOV     R2,#0x1b
   \   00001B   7B00         MOV     R3,#0x0
   \   00001D   12....       LCALL   ??Onboard_wait?relay
     14              bit_value = 0;                          //跳过门限后判断总线是高还是低，高为1，低为0
   \   000020   90....       MOV     DPTR,#bit_value
   \   000023   E4           CLR     A
   \   000024   F0           MOVX    @DPTR,A
     15              if(DHT11_DATA)
   \   000025   A284         MOV     C,0x80.4
   \   000027   5002         JNC     ??Read_Byte_3
     16              bit_value = 1;
   \   000029   04           INC     A
   \   00002A   F0           MOVX    @DPTR,A
     17              Overtime_counter=2;                          //等待1bit的电平信号结束，不管是0是1在118us后都变为低电平，否则错误超时
   \                     ??Read_Byte_3:
   \   00002B   90....       MOV     DPTR,#Overtime_counter
   \   00002E   7402         MOV     A,#0x2
   \   000030   F0           MOVX    @DPTR,A
     18              while (DHT11_DATA && Overtime_counter++);  //当U8FLAG加到255后溢出为0，跳出循环，并后加加为1
   \                     ??Read_Byte_4:
   \   000031   A284         MOV     C,0x80.4
   \   000033   5005         JNC     ??Read_Byte_5
   \   000035   12....       LCALL   ?Subroutine2 & 0xFFFF
   \                     ??CrossCallReturnLabel_1:
   \   000038   70F7         JNZ     ??Read_Byte_4
     19              if (Overtime_counter == 1)
   \                     ??Read_Byte_5:
   \   00003A   E0           MOVX    A,@DPTR
   \   00003B   6401         XRL     A,#0x1
   \   00003D   601B         JZ      ??Read_Byte_6
     20                break;                           //超时则跳出for循环        
     21              comdata <<= 1;                      //左移1位，LSB补0
     22              comdata |= bit_value;                  //LSB赋值
   \   00003F   90....       MOV     DPTR,#bit_value
   \   000042   C082         PUSH    DPL
   \   000044   90....       MOV     DPTR,#comdata
   \   000047   E0           MOVX    A,@DPTR
   \   000048   C3           CLR     C
   \   000049   33           RLC     A
   \   00004A   7583..       MOV     DPH,#(bit_value >> 8) & 0xff
   \   00004D   D082         POP     DPL
   \   00004F   F8           MOV     R0,A
   \   000050   E0           MOVX    A,@DPTR
   \   000051   48           ORL     A,R0
   \   000052   90....       MOV     DPTR,#comdata
   \   000055   F0           MOVX    @DPTR,A
     23            }
   \   000056   1E           DEC     R6
   \   000057   EE           MOV     A,R6
   \   000058   70AD         JNZ     ??Read_Byte_0
     24          }
   \                     ??Read_Byte_6:
   \   00005A   7F01         MOV     R7,#0x1
   \   00005C   02....       LJMP    ?BANKED_LEAVE_XDATA
   \   00005F                REQUIRE P0DIR
   \   00005F                REQUIRE _A_P0

   \                                 In  segment BANKED_CODE, align 1, keep-with-next
   \                     ?Subroutine2:
   \   000000   E0           MOVX    A,@DPTR
   \   000001   F8           MOV     R0,A
   \   000002   7401         MOV     A,#0x1
   \   000004   28           ADD     A,R0
   \   000005   F0           MOVX    @DPTR,A
   \   000006   E8           MOV     A,R0
   \   000007   22           RET
     25          
     26          /*****************DHT11读取五个字节函数******************/
     27          /*
     28          功能描述：获取dht11的温湿度
     29          参数说明：
     30              *temp：返回温度的整数部分
     31              *humid：返回湿度的整数部分
     32          返回值：
     33            0：成功读取
     34            <0：读取失败
     35          */

   \                                 In  segment BANKED_CODE, align 1, keep-with-next
     36          int Read_DHT11(unsigned char *temp,unsigned char *humid)
   \                     Read_DHT11:
     37          {
   \   000000   74F4         MOV     A,#-0xc
   \   000002   12....       LCALL   ?BANKED_ENTER_XDATA
   \   000005                ; Saved register size: 12
   \   000005                ; Auto size: 0
   \   000005   8A..         MOV     ?V0 + 0,R2
   \   000007   8B..         MOV     ?V0 + 1,R3
   \   000009   EC           MOV     A,R4
   \   00000A   FE           MOV     R6,A
   \   00000B   ED           MOV     A,R5
   \   00000C   FF           MOV     R7,A
     38              int result=-1;
   \   00000D   75..FF       MOV     ?V0 + 2,#-0x1
   \   000010   75..FF       MOV     ?V0 + 3,#-0x1
     39              uint8 checksum;
     40              P0DIR |= 0x10;
   \   000013   43FD10       ORL     0xfd,#0x10
     41              DHT11_DATA = 0;                //主机拉低18ms
   \   000016   C284         CLR     0x80.4
     42              MicroWait(18000);
   \   000018                ; Setup parameters for call to function Onboard_wait
   \   000018   7A50         MOV     R2,#0x50
   \   00001A   7B46         MOV     R3,#0x46
   \   00001C   12....       LCALL   ??Onboard_wait?relay
     43              DHT11_DATA = 1;                //总线由上拉电阻拉高 主机延时20us-40us    
   \   00001F   D284         SETB    0x80.4
     44              MicroWait(35);
   \   000021                ; Setup parameters for call to function Onboard_wait
   \   000021   7A23         MOV     R2,#0x23
   \   000023   7B00         MOV     R3,#0x0
   \   000025   12....       LCALL   ??Onboard_wait?relay
     45              DHT11_DATA = 1;                //主机转为输入或者输出高电平，DATA线由上拉电阻拉高，准备判断DHT11的响应信号
   \   000028   D284         SETB    0x80.4
     46              P0DIR &= ~0x10;
   \   00002A   53FDEF       ANL     0xfd,#0xef
     47              if (!DHT11_DATA)                //判断从机是否有低电平响应信号 如不响应则跳出，响应则向下运行        
   \   00002D   A284         MOV     C,0x80.4
   \   00002F   5003         JNC     $+5
   \   000031   02....       LJMP    ??Read_DHT11_0 & 0xFFFF
     48              {
     49                Overtime_counter = 2;   //判断DHT11发出的80us的低电平响应信号是否结束
   \   000034   90....       MOV     DPTR,#Overtime_counter
   \   000037   7402         MOV     A,#0x2
   \   000039   F0           MOVX    @DPTR,A
     50                while ((!DHT11_DATA)&&Overtime_counter++);
   \                     ??Read_DHT11_1:
   \   00003A   A284         MOV     C,0x80.4
   \   00003C   4005         JC      ??Read_DHT11_2
   \   00003E   12....       LCALL   ?Subroutine2 & 0xFFFF
   \                     ??CrossCallReturnLabel_2:
   \   000041   70F7         JNZ     ??Read_DHT11_1
     51                Overtime_counter=2;   //判断DHT11是否发出80us的高电平，如发出则进入数据接收状态
   \                     ??Read_DHT11_2:
   \   000043   7402         MOV     A,#0x2
   \   000045   F0           MOVX    @DPTR,A
     52                while ((DHT11_DATA)&&Overtime_counter++);
   \                     ??Read_DHT11_3:
   \   000046   A284         MOV     C,0x80.4
   \   000048   5005         JNC     ??Read_DHT11_4
   \   00004A   12....       LCALL   ?Subroutine2 & 0xFFFF
   \                     ??CrossCallReturnLabel_3:
   \   00004D   70F7         JNZ     ??Read_DHT11_3
     53                Read_Byte();                //读取湿度值整数部分的高8bit
   \                     ??Read_DHT11_4:
   \   00004F                ; Setup parameters for call to function Read_Byte
   \   00004F   12....       LCALL   ??Subroutine6_0 & 0xFFFF
     54                RH_data_H_temp = comdata;
   \                     ??CrossCallReturnLabel_10:
   \   000052   90....       MOV     DPTR,#RH_data_H_temp
   \   000055   12....       LCALL   ?Subroutine1 & 0xFFFF
     55                Read_Byte();                //读取湿度值小数部分的低8bit
     56                RH_data_L_temp = comdata;
   \                     ??CrossCallReturnLabel_6:
   \   000058   90....       MOV     DPTR,#RH_data_L_temp
   \   00005B   12....       LCALL   ?Subroutine1 & 0xFFFF
     57                Read_Byte();                //读取温度值整数部分的高8bit
     58                T_data_H_temp = comdata;
   \                     ??CrossCallReturnLabel_7:
   \   00005E   90....       MOV     DPTR,#T_data_H_temp
   \   000061   12....       LCALL   ?Subroutine1 & 0xFFFF
     59                Read_Byte();                //读取温度值小数部分的低8bit
     60                T_data_L_temp = comdata;
   \                     ??CrossCallReturnLabel_8:
   \   000064   90....       MOV     DPTR,#T_data_L_temp
   \   000067   12....       LCALL   ?Subroutine1 & 0xFFFF
     61                Read_Byte();                //读取校验和的8bit
     62                checkdata_temp = comdata;
   \                     ??CrossCallReturnLabel_9:
   \   00006A   90....       MOV     DPTR,#checkdata_temp
   \   00006D   F0           MOVX    @DPTR,A
     63                P0DIR |= 0x10;
   \   00006E   43FD10       ORL     0xfd,#0x10
     64                DHT11_DATA = 1;                //读完数据将总线拉高
   \   000071   D284         SETB    0x80.4
     65                checksum = (T_data_H_temp + T_data_L_temp + RH_data_H_temp + RH_data_L_temp);//进行数据校验
     66                if (checksum == checkdata_temp)
   \   000073   90....       MOV     DPTR,#RH_data_L_temp
   \   000076   C082         PUSH    DPL
   \   000078   C083         PUSH    DPH
   \   00007A   90....       MOV     DPTR,#RH_data_H_temp
   \   00007D   C082         PUSH    DPL
   \   00007F   C083         PUSH    DPH
   \   000081   90....       MOV     DPTR,#T_data_L_temp
   \   000084   C082         PUSH    DPL
   \   000086   90....       MOV     DPTR,#T_data_H_temp
   \   000089   E0           MOVX    A,@DPTR
   \   00008A   7583..       MOV     DPH,#(T_data_L_temp >> 8) & 0xff
   \   00008D   D082         POP     DPL
   \   00008F   F8           MOV     R0,A
   \   000090   E0           MOVX    A,@DPTR
   \   000091   28           ADD     A,R0
   \   000092   D083         POP     DPH
   \   000094   D082         POP     DPL
   \   000096   F8           MOV     R0,A
   \   000097   E0           MOVX    A,@DPTR
   \   000098   28           ADD     A,R0
   \   000099   D083         POP     DPH
   \   00009B   D082         POP     DPL
   \   00009D   F8           MOV     R0,A
   \   00009E   E0           MOVX    A,@DPTR
   \   00009F   28           ADD     A,R0
   \   0000A0   F8           MOV     R0,A
   \   0000A1   90....       MOV     DPTR,#checkdata_temp
   \   0000A4   E0           MOVX    A,@DPTR
   \   0000A5   68           XRL     A,R0
   \   0000A6   7042         JNZ     ??Read_DHT11_0
     67                  {
     68                    RH_data_H = RH_data_H_temp;//保存湿度的整数部分
   \   0000A8   90....       MOV     DPTR,#RH_data_H_temp
   \   0000AB   E0           MOVX    A,@DPTR
   \   0000AC   90....       MOV     DPTR,#RH_data_H
   \   0000AF   F0           MOVX    @DPTR,A
     69                    RH_data_L = RH_data_L_temp;//保存湿度的小数部分
   \   0000B0   90....       MOV     DPTR,#RH_data_L_temp
   \   0000B3   E0           MOVX    A,@DPTR
   \   0000B4   90....       MOV     DPTR,#RH_data_L
   \   0000B7   F0           MOVX    @DPTR,A
     70                    T_data_H  = T_data_H_temp;//保存温度的整数部分
   \   0000B8   90....       MOV     DPTR,#T_data_H_temp
   \   0000BB   E0           MOVX    A,@DPTR
   \   0000BC   90....       MOV     DPTR,#T_data_H
   \   0000BF   F0           MOVX    @DPTR,A
     71                    T_data_L  = T_data_L_temp;//保存温度的小数部分
   \   0000C0   90....       MOV     DPTR,#T_data_L_temp
   \   0000C3   E0           MOVX    A,@DPTR
   \   0000C4   90....       MOV     DPTR,#T_data_L
   \   0000C7   F0           MOVX    @DPTR,A
     72                    checkdata = checkdata_temp;
   \   0000C8   90....       MOV     DPTR,#checkdata_temp
   \   0000CB   E0           MOVX    A,@DPTR
   \   0000CC   90....       MOV     DPTR,#checkdata
   \   0000CF   F0           MOVX    @DPTR,A
     73                    *temp = T_data_H;
   \   0000D0   90....       MOV     DPTR,#T_data_H
   \   0000D3   E0           MOVX    A,@DPTR
   \   0000D4   85..82       MOV     DPL,?V0 + 0
   \   0000D7   85..83       MOV     DPH,?V0 + 1
   \   0000DA   F0           MOVX    @DPTR,A
     74                    *humid = RH_data_H;
   \   0000DB   90....       MOV     DPTR,#RH_data_H
   \   0000DE   E0           MOVX    A,@DPTR
   \   0000DF   8E82         MOV     DPL,R6
   \   0000E1   8F83         MOV     DPH,R7
   \   0000E3   F0           MOVX    @DPTR,A
     75                    result=0;
   \   0000E4   75..00       MOV     ?V0 + 2,#0x0
   \   0000E7   75..00       MOV     ?V0 + 3,#0x0
     76                  }
     77                
     78              }
     79              return result;
   \                     ??Read_DHT11_0:
   \   0000EA   AA..         MOV     R2,?V0 + 2
   \   0000EC   AB..         MOV     R3,?V0 + 3
   \   0000EE   7F04         MOV     R7,#0x4
   \   0000F0   02....       LJMP    ?BANKED_LEAVE_XDATA
   \   0000F3                REQUIRE P0DIR
   \   0000F3                REQUIRE _A_P0
     80          }

   \                                 In  segment BANKED_CODE, align 1, keep-with-next
   \                     ?Subroutine1:
   \   000000   F0           MOVX    @DPTR,A
   \   000001                ; Setup parameters for call to function Read_Byte
   \   000001                ; Setup parameters for call to function Read_Byte
   \   000001                ; Setup parameters for call to function Read_Byte
   \   000001                ; Setup parameters for call to function Read_Byte
   \   000001                REQUIRE ??Subroutine6_0
   \   000001                ; // Fall through to label ??Subroutine6_0

   \                                 In  segment BANKED_CODE, align 1, keep-with-next
   \                     ??Subroutine6_0:
   \   000000   12....       LCALL   ??Read_Byte?relay
   \   000003   90....       MOV     DPTR,#comdata
   \   000006   E0           MOVX    A,@DPTR
   \   000007   22           RET
     81          

   \                                 In  segment BANKED_CODE, align 1, keep-with-next
     82          void zb_StartConfirm( uint8 status )
   \                     zb_StartConfirm:
     83          {
   \   000000   74F6         MOV     A,#-0xa
   \   000002   12....       LCALL   ?BANKED_ENTER_XDATA
   \   000005                ; Saved register size: 10
   \   000005                ; Auto size: 88
   \   000005   74A8         MOV     A,#-0x58
   \   000007   12....       LCALL   ?ALLOC_XSTACK8
   \   00000A   E9           MOV     A,R1
     84            
     85            if(status==ZSUCCESS)
   \   00000B   6003         JZ      $+5
   \   00000D   02....       LJMP    ??CrossCallReturnLabel_16 & 0xFFFF
     86            {    
     87              halUARTCfg_t uartcfg;
     88              uartcfg.baudRate=HAL_UART_BR_115200;
   \   000010   7401         MOV     A,#0x1
   \   000012   12....       LCALL   ?XSTACK_DISP0_8
   \   000015   7404         MOV     A,#0x4
   \   000017   F0           MOVX    @DPTR,A
     89              uartcfg.flowControl=FALSE;
   \   000018   7402         MOV     A,#0x2
   \   00001A   12....       LCALL   ?XSTACK_DISP0_8
   \   00001D   E4           CLR     A
   \   00001E   F0           MOVX    @DPTR,A
     90              uartcfg.callBackFunc=NULL;
   \   00001F   741B         MOV     A,#0x1b
   \   000021   12....       LCALL   ?XSTACK_DISP0_8
   \   000024   E4           CLR     A
   \   000025   F0           MOVX    @DPTR,A
   \   000026   A3           INC     DPTR
   \   000027   F0           MOVX    @DPTR,A
     91              HalUARTOpen(HAL_UART_PORT_0,&uartcfg);
   \   000028                ; Setup parameters for call to function HalUARTOpen
   \   000028   85..82       MOV     DPL,?XSP + 0
   \   00002B   85..83       MOV     DPH,?XSP + 1
   \   00002E   AA82         MOV     R2,DPL
   \   000030   AB83         MOV     R3,DPH
   \   000032   F9           MOV     R1,A
   \   000033   12....       LCALL   ??HalUARTOpen?relay
     92              HalLedSet(HAL_LED_1, HAL_LED_MODE_OFF);
   \   000036                ; Setup parameters for call to function HalLedSet
   \   000036   7A00         MOV     R2,#0x0
   \   000038   7901         MOV     R1,#0x1
   \   00003A   12....       LCALL   ??HalLedSet?relay
     93              HalLedSet(HAL_LED_2, HAL_LED_MODE_OFF);
   \   00003D                ; Setup parameters for call to function HalLedSet
   \   00003D   7A00         MOV     R2,#0x0
   \   00003F   7902         MOV     R1,#0x2
   \   000041   12....       LCALL   ??HalLedSet?relay
     94              char buf[]="The livingroomNode is successfully added to the network!\r\n";
   \   000044   741D         MOV     A,#0x1d
   \   000046   12....       LCALL   ?XSTACK_DISP0_8
   \   000049   AC82         MOV     R4,DPL
   \   00004B   AD83         MOV     R5,DPH
   \   00004D   7583..       MOV     DPH,#(`?<Constant "The livingroomNode is...">` >> 8) & 0xff
   \   000050   7582..       MOV     DPL,#`?<Constant "The livingroomNode is...">` & 0xff
   \   000053   743B         MOV     A,#0x3b
   \   000055   12....       LCALL   ?MOVE_LONG8_XDATA_XDATA
     95              HalUARTWrite(HAL_UART_PORT_0,buf,osal_strlen(buf));
                                                  ^
Warning[Pe167]: argument of type "char *" is incompatible with parameter of
          type "unsigned char *"
   \   000058                ; Setup parameters for call to function HalUARTWrite
   \   000058                ; Setup parameters for call to function osal_strlen
   \   000058   741D         MOV     A,#0x1d
   \   00005A   12....       LCALL   ?XSTACK_DISP0_8
   \   00005D   12....       LCALL   ?Subroutine3 & 0xFFFF
   \                     ??CrossCallReturnLabel_11:
   \   000060   741D         MOV     A,#0x1d
   \   000062   12....       LCALL   ?XSTACK_DISP0_8
   \   000065   12....       LCALL   ?Subroutine5 & 0xFFFF
     96              zb_SendDataRequest(0X0,SUBNODE_JOIN_NET_CMD_ID,LEDNUM,ledIdList,0,FALSE,AF_DEFAULT_RADIUS);
   \                     ??CrossCallReturnLabel_4:
   \   000068   12....       LCALL   ?PUSH_XSTACK_I_ONE
   \   00006B   75..00       MOV     ?V0 + 0,#0x0
   \   00006E   78..         MOV     R0,#?V0 + 0
   \   000070   12....       LCALL   ?PUSH_XSTACK_I_ONE
   \   000073   78..         MOV     R0,#?V0 + 0
   \   000075   12....       LCALL   ?PUSH_XSTACK_I_ONE
   \   000078   75....       MOV     ?V0 + 0,#ledIdList & 0xff
   \   00007B   75....       MOV     ?V0 + 1,#(ledIdList >> 8) & 0xff
   \   00007E   78..         MOV     R0,#?V0 + 0
   \   000080   12....       LCALL   ?PUSH_XSTACK_I_TWO
   \   000083   7902         MOV     R1,#0x2
   \   000085   7C01         MOV     R4,#0x1
   \   000087   7D00         MOV     R5,#0x0
   \   000089   7A00         MOV     R2,#0x0
   \   00008B   7B00         MOV     R3,#0x0
   \   00008D   12....       LCALL   ??zb_SendDataRequest?relay
   \   000090   7405         MOV     A,#0x5
   \   000092   12....       LCALL   ?DEALLOC_XSTACK8
     97              osal_start_timerEx(sapi_TaskID,READ_LIVINGROOM_SENSOR_DATA_EVENT,7000);
   \   000095                ; Setup parameters for call to function osal_start_timerEx
   \   000095   12....       LCALL   ?Subroutine4 & 0xFFFF
     98              osal_start_timerEx(sapi_TaskID,HEART_BEAT_TIMEOUT_EVENT,5000);
   \                     ??CrossCallReturnLabel_14:
   \   000098                ; Setup parameters for call to function osal_start_timerEx
   \   000098   7C88         MOV     R4,#-0x78
   \   00009A   7D13         MOV     R5,#0x13
   \   00009C   7A01         MOV     R2,#0x1
   \   00009E   12....       LCALL   ??Subroutine8_0 & 0xFFFF
     99            }
    100          }
   \                     ??CrossCallReturnLabel_16:
   \   0000A1   7458         MOV     A,#0x58
   \   0000A3                REQUIRE ?Subroutine0
   \   0000A3                ; // Fall through to label ?Subroutine0

   \                                 In  segment BANKED_CODE, align 1, keep-with-next
   \                     ?Subroutine0:
   \   000000   12....       LCALL   ?DEALLOC_XSTACK8
   \   000003   7F02         MOV     R7,#0x2
   \   000005   02....       LJMP    ?BANKED_LEAVE_XDATA

   \                                 In  segment BANKED_CODE, align 1, keep-with-next
   \                     ?Subroutine3:
   \   000000   AA82         MOV     R2,DPL
   \   000002   AB83         MOV     R3,DPH
   \   000004                REQUIRE ??Subroutine7_0
   \   000004                ; // Fall through to label ??Subroutine7_0

   \                                 In  segment BANKED_CODE, align 1, keep-with-next
   \                     ??Subroutine7_0:
   \   000000   12....       LCALL   ??osal_strlen?relay
   \   000003   EA           MOV     A,R2
   \   000004   FC           MOV     R4,A
   \   000005   EB           MOV     A,R3
   \   000006   FD           MOV     R5,A
   \   000007   22           RET

   \                                 In  segment BANKED_CODE, align 1, keep-with-next
   \                     ?Subroutine5:
   \   000000   AA82         MOV     R2,DPL
   \   000002   AB83         MOV     R3,DPH
   \   000004   7900         MOV     R1,#0x0
   \   000006   12....       LCALL   ??HalUARTWrite?relay
   \   000009                ; Setup parameters for call to function zb_SendDataRequest
   \   000009                ; Setup parameters for call to function zb_SendDataRequest
   \   000009   75..1E       MOV     ?V0 + 0,#0x1e
   \   00000C   78..         MOV     R0,#?V0 + 0
   \   00000E   22           RET

   \                                 In  segment BANKED_CODE, align 1, keep-with-next
   \                     ?Subroutine4:
   \   000000   7C58         MOV     R4,#0x58
   \   000002   7D1B         MOV     R5,#0x1b
   \   000004   7A03         MOV     R2,#0x3
   \   000006                REQUIRE ??Subroutine8_0
   \   000006                ; // Fall through to label ??Subroutine8_0

   \                                 In  segment BANKED_CODE, align 1, keep-with-next
   \                     ??Subroutine8_0:
   \   000000   7B00         MOV     R3,#0x0
   \   000002   90....       MOV     DPTR,#sapi_TaskID
   \   000005   E0           MOVX    A,@DPTR
   \   000006   F9           MOV     R1,A
   \   000007   12....       LCALL   ??osal_start_timerEx?relay
   \   00000A   22           RET
    101          

   \                                 In  segment BANKED_CODE, align 1, keep-with-next
    102          void zb_HandleOsalEvent( uint16 event )
   \                     zb_HandleOsalEvent:
    103          {
   \   000000   74F6         MOV     A,#-0xa
   \   000002   12....       LCALL   ?BANKED_ENTER_XDATA
   \   000005                ; Saved register size: 10
   \   000005                ; Auto size: 52
   \   000005   74CC         MOV     A,#-0x34
   \   000007   12....       LCALL   ?ALLOC_XSTACK8
   \   00000A   EA           MOV     A,R2
   \   00000B   FE           MOV     R6,A
    104            if(event&READ_LIVINGROOM_SENSOR_DATA_EVENT){//读取DHT11数据事件
   \   00000C   5403         ANL     A,#0x3
   \   00000E   7003         JNZ     $+5
   \   000010   02....       LJMP    ??CrossCallReturnLabel_15 & 0xFFFF
    105              
    106              uint8 temphumi[2];
    107              //char buf[30];
    108              //unsigned int data = Read_DHT11(temphumi,temphumi+1);
    109              //sprintf(buf,"data = %d\r\n",data);
    110              //HalUARTWrite(HAL_UART_PORT_0,buf,osal_strlen(buf)); 
    111              if(Read_DHT11(temphumi,temphumi+1)==0)
   \   000013                ; Setup parameters for call to function Read_DHT11
   \   000013   7401         MOV     A,#0x1
   \   000015   12....       LCALL   ?XSTACK_DISP0_8
   \   000018   AC82         MOV     R4,DPL
   \   00001A   AD83         MOV     R5,DPH
   \   00001C   85..82       MOV     DPL,?XSP + 0
   \   00001F   85..83       MOV     DPH,?XSP + 1
   \   000022   AA82         MOV     R2,DPL
   \   000024   AB83         MOV     R3,DPH
   \   000026   12....       LCALL   ??Read_DHT11?relay
   \   000029   8B..         MOV     ?V0 + 1,R3
   \   00002B   EA           MOV     A,R2
   \   00002C   45..         ORL     A,?V0 + 1
   \   00002E   6003         JZ      $+5
   \   000030   02....       LJMP    ??zb_HandleOsalEvent_0 & 0xFFFF
    112              {
    113                char buffer[50];
    114                sprintf(buffer,"{\"Temperature\":\"%d\",\"Humidity\":\"%d\"}\r\n",*temphumi,*(temphumi+1));
   \   000033                ; Setup parameters for call to function sprintf
   \   000033   7401         MOV     A,#0x1
   \   000035   12....       LCALL   ?XSTACK_DISP0_8
   \   000038   E0           MOVX    A,@DPTR
   \   000039   F5..         MOV     ?V0 + 0,A
   \   00003B   75..00       MOV     ?V0 + 1,#0x0
   \   00003E   78..         MOV     R0,#?V0 + 0
   \   000040   12....       LCALL   ?PUSH_XSTACK_I_TWO
   \   000043   7402         MOV     A,#0x2
   \   000045   12....       LCALL   ?XSTACK_DISP0_8
   \   000048   E0           MOVX    A,@DPTR
   \   000049   F5..         MOV     ?V0 + 0,A
   \   00004B   78..         MOV     R0,#?V0 + 0
   \   00004D   12....       LCALL   ?PUSH_XSTACK_I_TWO
   \   000050   7C..         MOV     R4,#`?<Constant "{\\"Temperature\\":\\"%d\\",\\"...">` & 0xff
   \   000052   7D..         MOV     R5,#(`?<Constant "{\\"Temperature\\":\\"%d\\",\\"...">` >> 8) & 0xff
   \   000054   7406         MOV     A,#0x6
   \   000056   12....       LCALL   ?XSTACK_DISP0_8
   \   000059   AA82         MOV     R2,DPL
   \   00005B   AB83         MOV     R3,DPH
   \   00005D   12....       LCALL   ??sprintf?relay
   \   000060   7404         MOV     A,#0x4
   \   000062   12....       LCALL   ?DEALLOC_XSTACK8
    115                HalUARTWrite(HAL_UART_PORT_0,buffer,osal_strlen(buffer));
                                                    ^
Warning[Pe167]: argument of type "char *" is incompatible with parameter of
          type "unsigned char *"
   \   000065                ; Setup parameters for call to function HalUARTWrite
   \   000065                ; Setup parameters for call to function osal_strlen
   \   000065   7402         MOV     A,#0x2
   \   000067   12....       LCALL   ?XSTACK_DISP0_8
   \   00006A   12....       LCALL   ?Subroutine3 & 0xFFFF
   \                     ??CrossCallReturnLabel_12:
   \   00006D   7402         MOV     A,#0x2
   \   00006F   12....       LCALL   ?XSTACK_DISP0_8
   \   000072   12....       LCALL   ?Subroutine5 & 0xFFFF
    116                
    117                //把读取到的温湿度值发给协调器
    118                zb_SendDataRequest(0X0,GET_LIVINGROOM_NODE_DATA_CMD_ID,osal_strlen(temphumi),temphumi,0,FALSE,AF_DEFAULT_RADIUS);
                                                                                          ^
Warning[Pe167]: argument of type "unsigned char *" is incompatible with
          parameter of type "char *"
   \                     ??CrossCallReturnLabel_5:
   \   000075   12....       LCALL   ?PUSH_XSTACK_I_ONE
   \   000078   75..00       MOV     ?V0 + 0,#0x0
   \   00007B   78..         MOV     R0,#?V0 + 0
   \   00007D   12....       LCALL   ?PUSH_XSTACK_I_ONE
   \   000080   78..         MOV     R0,#?V0 + 0
   \   000082   12....       LCALL   ?PUSH_XSTACK_I_ONE
   \   000085   7403         MOV     A,#0x3
   \   000087   12....       LCALL   ?XSTACK_DISP0_8
   \   00008A   8582..       MOV     ?V0 + 0,DPL
   \   00008D   8583..       MOV     ?V0 + 1,DPH
   \   000090   78..         MOV     R0,#?V0 + 0
   \   000092   12....       LCALL   ?PUSH_XSTACK_I_TWO
   \   000095                ; Setup parameters for call to function osal_strlen
   \   000095   7405         MOV     A,#0x5
   \   000097   12....       LCALL   ?XSTACK_DISP0_8
   \   00009A   AA82         MOV     R2,DPL
   \   00009C   AB83         MOV     R3,DPH
   \   00009E   12....       LCALL   ??osal_strlen?relay
   \   0000A1   EA           MOV     A,R2
   \   0000A2   F9           MOV     R1,A
   \   0000A3   7C03         MOV     R4,#0x3
   \   0000A5   7D00         MOV     R5,#0x0
   \   0000A7   7A00         MOV     R2,#0x0
   \   0000A9   7B00         MOV     R3,#0x0
   \   0000AB   12....       LCALL   ??zb_SendDataRequest?relay
   \   0000AE   7405         MOV     A,#0x5
   \   0000B0   12....       LCALL   ?DEALLOC_XSTACK8
    119                osal_start_timerEx(sapi_TaskID,READ_LIVINGROOM_SENSOR_DATA_EVENT,7000);
   \   0000B3                ; Setup parameters for call to function osal_start_timerEx
   \   0000B3   8010         SJMP    ??zb_HandleOsalEvent_1
    120              
    121              }else{
    122                HalUARTWrite(HAL_UART_PORT_0,"The DTH11 is faulty",osal_strlen("The DTH11 is faulty")); 
   \                     ??zb_HandleOsalEvent_0:
   \   0000B5                ; Setup parameters for call to function HalUARTWrite
   \   0000B5                ; Setup parameters for call to function osal_strlen
   \   0000B5   7A..         MOV     R2,#`?<Constant "The DTH11 is faulty">` & 0xff
   \   0000B7   7B..         MOV     R3,#(`?<Constant "The DTH11 is faulty">` >> 8) & 0xff
   \   0000B9   12....       LCALL   ??Subroutine7_0 & 0xFFFF
   \                     ??CrossCallReturnLabel_13:
   \   0000BC   7A..         MOV     R2,#`?<Constant "The DTH11 is faulty">` & 0xff
   \   0000BE   7B..         MOV     R3,#(`?<Constant "The DTH11 is faulty">` >> 8) & 0xff
   \   0000C0   7900         MOV     R1,#0x0
   \   0000C2   12....       LCALL   ??HalUARTWrite?relay
    123                osal_start_timerEx(sapi_TaskID,READ_LIVINGROOM_SENSOR_DATA_EVENT,7000);
   \   0000C5                ; Setup parameters for call to function osal_start_timerEx
    124              }
    125            }
   \                     ??zb_HandleOsalEvent_1:
   \   0000C5   12....       LCALL   ?Subroutine4 & 0xFFFF
    126            
    127            if(event&HEART_BEAT_TIMEOUT_EVENT)
   \                     ??CrossCallReturnLabel_15:
   \   0000C8   EE           MOV     A,R6
   \   0000C9   A2E0         MOV     C,0xE0 /* A   */.0
   \   0000CB   5038         JNC     ??zb_HandleOsalEvent_2
    128            {
    129              osal_start_timerEx(sapi_TaskID,HEART_BEAT_TIMEOUT_EVENT,5000);
   \   0000CD                ; Setup parameters for call to function osal_start_timerEx
   \   0000CD   7C88         MOV     R4,#-0x78
   \   0000CF   7D13         MOV     R5,#0x13
   \   0000D1   7A01         MOV     R2,#0x1
   \   0000D3   12....       LCALL   ??Subroutine8_0 & 0xFFFF
    130              zb_SendDataRequest(0X0,HEART_BEAT_CMD_ID,0,NULL,0,FALSE,AF_DEFAULT_RADIUS); 
   \                     ??CrossCallReturnLabel_17:
   \   0000D6                ; Setup parameters for call to function zb_SendDataRequest
   \   0000D6   75..1E       MOV     ?V0 + 0,#0x1e
   \   0000D9   78..         MOV     R0,#?V0 + 0
   \   0000DB   12....       LCALL   ?PUSH_XSTACK_I_ONE
   \   0000DE   75..00       MOV     ?V0 + 0,#0x0
   \   0000E1   78..         MOV     R0,#?V0 + 0
   \   0000E3   12....       LCALL   ?PUSH_XSTACK_I_ONE
   \   0000E6   78..         MOV     R0,#?V0 + 0
   \   0000E8   12....       LCALL   ?PUSH_XSTACK_I_ONE
   \   0000EB   E4           CLR     A
   \   0000EC   F5..         MOV     ?V0 + 1,A
   \   0000EE   78..         MOV     R0,#?V0 + 0
   \   0000F0   12....       LCALL   ?PUSH_XSTACK_I_TWO
   \   0000F3   7900         MOV     R1,#0x0
   \   0000F5   7C04         MOV     R4,#0x4
   \   0000F7   7D00         MOV     R5,#0x0
   \   0000F9   7A00         MOV     R2,#0x0
   \   0000FB   7B00         MOV     R3,#0x0
   \   0000FD   12....       LCALL   ??zb_SendDataRequest?relay
   \   000100   7405         MOV     A,#0x5
   \   000102   12....       LCALL   ?DEALLOC_XSTACK8
    131            }
    132            
    133          }
   \                     ??zb_HandleOsalEvent_2:
   \   000105   7434         MOV     A,#0x34
   \   000107   02....       LJMP    ?Subroutine0 & 0xFFFF
    134          

   \                                 In  segment BANKED_CODE, align 1, keep-with-next
    135          void zb_FindDeviceConfirm( uint8 searchType, 
   \                     zb_FindDeviceConfirm:
    136                                    uint8 *searchKey, uint8 *result )
    137          {
   \   000000                ; Saved register size: 0
   \   000000                ; Auto size: 0
    138            
    139          }
   \   000000   02....       LJMP    ?BRET
    140          
    141          /***********
    142          执行时机：发送的数据包被接收方收到时被调用
    143          handle:包的编号；
    144          status:ZSUCCESS表示成功接收
    145          ************/

   \                                 In  segment BANKED_CODE, align 1, keep-with-next
    146          void zb_SendDataConfirm( uint8 handle, uint8 status )
   \                     zb_SendDataConfirm:
    147          {
   \   000000                ; Saved register size: 0
   \   000000                ; Auto size: 0
    148            
    149          }
   \   000000   02....       LJMP    ?BRET
    150          
    151          /***********
    152          执行时机：接收到的数据包被调用
    153          ************/

   \                                 In  segment BANKED_CODE, align 1, keep-with-next
    154          void zb_ReceiveDataIndication( uint16 source, uint16 command, 
   \                     zb_ReceiveDataIndication:
    155                                        uint16 len, uint8 *pData  )
    156          {
   \   000000                ; Saved register size: 0
   \   000000                ; Auto size: 0
    157            
    158          }
   \   000000   02....       LJMP    ?BRET
    159          
    160          

   \                                 In  segment BANKED_CODE, align 1, keep-with-next
    161          void zb_AllowBindConfirm( uint16 source )
   \                     zb_AllowBindConfirm:
    162          {
   \   000000                ; Saved register size: 0
   \   000000                ; Auto size: 0
    163          }
   \   000000   02....       LJMP    ?BRET
    164          

   \                                 In  segment BANKED_CODE, align 1, keep-with-next
    165          void zb_HandleKeys( uint8 shift, uint8 keys )
   \                     zb_HandleKeys:
    166          {
   \   000000                ; Saved register size: 0
   \   000000                ; Auto size: 0
    167            
    168          }
   \   000000   02....       LJMP    ?BRET
    169          

   \                                 In  segment BANKED_CODE, align 1, keep-with-next
    170          void zb_BindConfirm( uint16 commandId, uint8 status )
   \                     zb_BindConfirm:
    171          {
   \   000000                ; Saved register size: 0
   \   000000                ; Auto size: 0
    172          }
   \   000000   02....       LJMP    ?BRET

   \                                 In  segment XDATA_ID, align 1, keep-with-next
   \                     `?<Initializer for ledIdList>`:
   \   000000   02           DB 2
   \   000001   02           DB 2

   \                                 In  segment BANK_RELAYS, align 1
   \                     ??Read_Byte?relay:
   \   000000   12....       LCALL   ?BDISPATCH
   \   000003   ......       DC24    Read_Byte

   \                                 In  segment BANK_RELAYS, align 1
   \                     ??Read_DHT11?relay:
   \   000000   12....       LCALL   ?BDISPATCH
   \   000003   ......       DC24    Read_DHT11

   \                                 In  segment BANK_RELAYS, align 1
   \                     ??zb_StartConfirm?relay:
   \   000000   12....       LCALL   ?BDISPATCH
   \   000003   ......       DC24    zb_StartConfirm

   \                                 In  segment BANK_RELAYS, align 1
   \                     ??zb_HandleOsalEvent?relay:
   \   000000   12....       LCALL   ?BDISPATCH
   \   000003   ......       DC24    zb_HandleOsalEvent

   \                                 In  segment BANK_RELAYS, align 1
   \                     ??zb_FindDeviceConfirm?relay:
   \   000000   12....       LCALL   ?BDISPATCH
   \   000003   ......       DC24    zb_FindDeviceConfirm

   \                                 In  segment BANK_RELAYS, align 1
   \                     ??zb_SendDataConfirm?relay:
   \   000000   12....       LCALL   ?BDISPATCH
   \   000003   ......       DC24    zb_SendDataConfirm

   \                                 In  segment BANK_RELAYS, align 1
   \                     ??zb_ReceiveDataIndication?relay:
   \   000000   12....       LCALL   ?BDISPATCH
   \   000003   ......       DC24    zb_ReceiveDataIndication

   \                                 In  segment BANK_RELAYS, align 1
   \                     ??zb_AllowBindConfirm?relay:
   \   000000   12....       LCALL   ?BDISPATCH
   \   000003   ......       DC24    zb_AllowBindConfirm

   \                                 In  segment BANK_RELAYS, align 1
   \                     ??zb_HandleKeys?relay:
   \   000000   12....       LCALL   ?BDISPATCH
   \   000003   ......       DC24    zb_HandleKeys

   \                                 In  segment BANK_RELAYS, align 1
   \                     ??zb_BindConfirm?relay:
   \   000000   12....       LCALL   ?BDISPATCH
   \   000003   ......       DC24    zb_BindConfirm

   \                                 In  segment XDATA_ROM_C, align 1
   \                     `?<Constant "The livingroomNode is...">`:
   \   000000   54686520     DB 54H, 68H, 65H, 20H, 6CH, 69H, 76H, 69H
   \            6C697669
   \   000008   6E67726F     DB 6EH, 67H, 72H, 6FH, 6FH, 6DH, 4EH, 6FH
   \            6F6D4E6F
   \   000010   64652069     DB 64H, 65H, 20H, 69H, 73H, 20H, 73H, 75H
   \            73207375
   \   000018   63636573     DB 63H, 63H, 65H, 73H, 73H, 66H, 75H, 6CH
   \            7366756C
   \   000020   6C792061     DB 6CH, 79H, 20H, 61H, 64H, 64H, 65H, 64H
   \            64646564
   \   000028   20746F20     DB 20H, 74H, 6FH, 20H, 74H, 68H, 65H, 20H
   \            74686520
   \   000030   6E657477     DB 6EH, 65H, 74H, 77H, 6FH, 72H, 6BH, 21H
   \            6F726B21
   \   000038   0D0A00       DB 0DH, 0AH, 0

   \                                 In  segment XDATA_ROM_C, align 1
   \                     `?<Constant "{\\"Temperature\\":\\"%d\\",\\"...">`:
   \   000000   7B225465     DB "{\"Temperature\":\"%d\",\"Humidity\":\"%d\"}\015\012"
   \            6D706572
   \            61747572
   \            65223A22
   \            2564222C
   \            2248756D
   \            69646974
   \            79223A22
   \            2564227D
   \            0D0A00  

   \                                 In  segment XDATA_ROM_C, align 1
   \                     `?<Constant "The DTH11 is faulty">`:
   \   000000   54686520     DB "The DTH11 is faulty"
   \            44544831
   \            31206973
   \            20666175
   \            6C747900

   Maximum stack usage in bytes:

     Function                 ISTACK PSTACK XSTACK
     --------                 ------ ------ ------
     Read_Byte                    2      0     21
       -> Onboard_wait            0      0     18
     Read_DHT11                   6      0     74
       -> Onboard_wait            0      0     24
       -> Onboard_wait            0      0     24
       -> Read_Byte               0      0     24
       -> Read_Byte               0      0     24
       -> Read_Byte               0      0     24
       -> Read_Byte               0      0     24
       -> Read_Byte               0      0     24
     zb_AllowBindConfirm          0      0      0
     zb_BindConfirm               0      0      0
     zb_FindDeviceConfirm         0      0      0
     zb_HandleKeys                0      0      0
     zb_HandleOsalEvent           0      0     67
       -> Read_DHT11              0      0    124
       -> sprintf                 0      0    132
       -> osal_strlen             0      0    124
       -> HalUARTWrite            0      0    124
       -> osal_strlen             0      0    134
       -> zb_SendDataRequest      0      0    134
       -> osal_start_timerEx      0      0    124
       -> osal_strlen             0      0    124
       -> HalUARTWrite            0      0    124
       -> osal_start_timerEx      0      0    124
       -> osal_start_timerEx      0      0    124
       -> zb_SendDataRequest      0      0    134
     zb_ReceiveDataIndication     0      0      4
     zb_SendDataConfirm           0      0      0
     zb_StartConfirm              2      0    103
       -> HalUARTOpen             0      0    196
       -> HalLedSet               0      0    196
       -> HalLedSet               0      0    196
       -> osal_strlen             0      0    196
       -> HalUARTWrite            0      0    196
       -> zb_SendDataRequest      0      0    206
       -> osal_start_timerEx      0      0    196
       -> osal_start_timerEx      0      0    196


   Segment part sizes:

     Function/Label                              Bytes
     --------------                              -----
     _A_P0                                          1
     P0DIR                                          1
     ledIdList                                      2
     livingRoomDeviceInputCommandList
                                                   12
     livingRoomDeviceOutputCommandList
                                                    6
     zb_SimpleDesc                                 12
     Overtime_counter                               1
     bit_value                                      1
     T_data_H                                       1
     T_data_L                                       1
     RH_data_H                                      1
     RH_data_L                                      1
     checkdata                                      1
     T_data_H_temp                                  1
     T_data_L_temp                                  1
     RH_data_H_temp                                 1
     RH_data_L_temp                                 1
     checkdata_temp                                 1
     comdata                                        1
     Read_Byte                                     95
     ?Subroutine2                                   8
     Read_DHT11                                   243
     ?Subroutine1                                   1
     ??Subroutine6_0                                8
     zb_StartConfirm                              163
     ?Subroutine0                                   8
     ?Subroutine3                                   4
     ??Subroutine7_0                                8
     ?Subroutine5                                  15
     ?Subroutine4                                   6
     ??Subroutine8_0                               11
     zb_HandleOsalEvent                           266
     zb_FindDeviceConfirm                           3
     zb_SendDataConfirm                             3
     zb_ReceiveDataIndication                       3
     zb_AllowBindConfirm                            3
     zb_HandleKeys                                  3
     zb_BindConfirm                                 3
     ?<Initializer for ledIdList>                   2
     ??Read_Byte?relay                              6
     ??Read_DHT11?relay                             6
     ??zb_StartConfirm?relay                        6
     ??zb_HandleOsalEvent?relay                     6
     ??zb_FindDeviceConfirm?relay                   6
     ??zb_SendDataConfirm?relay                     6
     ??zb_ReceiveDataIndication?relay               6
     ??zb_AllowBindConfirm?relay                    6
     ??zb_HandleKeys?relay                          6
     ??zb_BindConfirm?relay                         6
     ?<Constant "The livingroomNode is...">        59
     ?<Constant "{\"Temperature\":\"%d\",\"...">   39
     ?<Constant "The DTH11 is faulty">             20

 
 854 bytes in segment BANKED_CODE
  60 bytes in segment BANK_RELAYS
   2 bytes in segment SFR_AN
   2 bytes in segment XDATA_I
   2 bytes in segment XDATA_ID
 148 bytes in segment XDATA_ROM_C
  13 bytes in segment XDATA_Z
 
 916 bytes of CODE  memory
 148 bytes of CONST memory
   0 bytes of DATA  memory (+ 2 bytes shared)
  15 bytes of XDATA memory

Errors: none
Warnings: 3
