///////////////////////////////////////////////////////////////////////////////
//                                                                            /
// IAR C/C++ Compiler V8.10.1.10194/W32 for 8051        09/Dec/2021  00:14:24 /
// Copyright 2004-2011 IAR Systems AB.                                        /
//                                                                            /
//    Core               =  plain                                             /
//    Code model         =  banked                                            /
//    Data model         =  large                                             /
//    Calling convention =  xdata reentrant                                   /
//    Constant location  =  data_rom                                          /
//    Dptr setup         =  1,16                                              /
//    Source file        =  D:\developer_tool_install\IAR\ZStack-CC2530-2.5.1 /
//                          a\Projects\zstack\Samples\SMGW\Source\cJSON.c     /
//    Command line       =  -f D:\developer_tool_install\IAR\ZStack-CC2530-2. /
//                          5.1a\Projects\zstack\Samples\SMGW\CC2530DB\..\..\ /
//                          ..\Tools\CC2530DB\f8wCoord.cfg (-DCPU32MHZ        /
//                          -DROOT=__near_func -DMAC_CFG_APP_PENDING_QUEUE=TR /
//                          UE -DMAC_CFG_TX_DATA_MAX=5 -DMAC_CFG_TX_MAX=8     /
//                          -DMAC_CFG_RX_MAX=5 -DZDO_COORDINATOR -DRTR_NWK)   /
//                          -f D:\developer_tool_install\IAR\ZStack-CC2530-2. /
//                          5.1a\Projects\zstack\Samples\SMGW\CC2530DB\..\..\ /
//                          ..\Tools\CC2530DB\f8wConfig.cfg (-DZIGBEEPRO      /
//                          -DSECURE=0 -DZG_SECURE_DYNAMIC=0 -DREFLECTOR      /
//                          -DDEFAULT_CHANLIST=0x00010000                     /
//                          -DZDAPP_CONFIG_PAN_ID=0xFFF3                      /
//                          -DNWK_START_DELAY=100 -DEXTENDED_JOINING_RANDOM_M /
//                          ASK=0x007F -DBEACON_REQUEST_DELAY=100             /
//                          -DBEACON_REQ_DELAY_MASK=0x00FF                    /
//                          -DLINK_STATUS_JITTER_MASK=0x007F                  /
//                          -DROUTE_EXPIRY_TIME=30 -DAPSC_ACK_WAIT_DURATION_P /
//                          OLLED=3000 -DNWK_INDIRECT_MSG_TIMEOUT=7           /
//                          -DMAX_RREQ_ENTRIES=8 -DAPSC_MAX_FRAME_RETRIES=3   /
//                          -DNWK_MAX_DATA_RETRIES=2                          /
//                          -DMAX_POLL_FAILURE_RETRIES=2 -DMAX_BCAST=9        /
//                          -DAPS_MAX_GROUPS=16 -DMAX_RTG_ENTRIES=40          /
//                          -DNWK_MAX_BINDING_ENTRIES=4                       /
//                          -DMAX_BINDING_CLUSTER_IDS=4                       /
//                          "-DDEFAULT_KEY={0x01, 0x03, 0x05, 0x07, 0x09,     /
//                          0x0B, 0x0D, 0x0F, 0x00, 0x02, 0x04, 0x06, 0x08,   /
//                          0x0A, 0x0C, 0x0D}" -DMAC_MAX_FRAME_SIZE=116       /
//                          -DZDNWKMGR_MIN_TRANSMISSIONS=20 "-DCONST=const    /
//                          __code" -DGENERIC=__generic                       /
//                          -DRFD_RCVC_ALWAYS_ON=FALSE -DPOLL_RATE=1000       /
//                          -DQUEUED_POLL_RATE=100 -DRESPONSE_POLL_RATE=100)  /
//                          -DREJOIN_POLL_RATE=440 D:\developer_tool_install\ /
//                          IAR\ZStack-CC2530-2.5.1a\Projects\zstack\Samples\ /
//                          SMGW\Source\cJSON.c -D ZTOOL_P1 -D xMT_TASK -D    /
//                          xMT_SYS_FUNC -D xMT_ZDO_FUNC -D                   /
//                          xLCD_SUPPORTED=DEBUG -lC                          /
//                          D:\developer_tool_install\IAR\ZStack-CC2530-2.5.1 /
//                          a\Projects\zstack\Samples\SMGW\CC2530DB\Coordinat /
//                          orEB\List\ -lA D:\developer_tool_install\IAR\ZSta /
//                          ck-CC2530-2.5.1a\Projects\zstack\Samples\SMGW\CC2 /
//                          530DB\CoordinatorEB\List\ --diag_suppress         /
//                          Pe001,Pa010 -o D:\developer_tool_install\IAR\ZSta /
//                          ck-CC2530-2.5.1a\Projects\zstack\Samples\SMGW\CC2 /
//                          530DB\CoordinatorEB\Obj\ -e --no_code_motion      /
//                          --debug --core=plain --dptr=16,1                  /
//                          --data_model=large --code_model=banked            /
//                          --calling_convention=xdata_reentrant              /
//                          --place_constants=data_rom --nr_virtual_regs 16   /
//                          -I D:\developer_tool_install\IAR\ZStack-CC2530-2. /
//                          5.1a\Projects\zstack\Samples\SMGW\CC2530DB\ -I    /
//                          D:\developer_tool_install\IAR\ZStack-CC2530-2.5.1 /
//                          a\Projects\zstack\Samples\SMGW\CC2530DB\..\Source /
//                          \ -I D:\developer_tool_install\IAR\ZStack-CC2530- /
//                          2.5.1a\Projects\zstack\Samples\SMGW\CC2530DB\..\. /
//                          .\..\ZMain\TI2530DB\ -I                           /
//                          D:\developer_tool_install\IAR\ZStack-CC2530-2.5.1 /
//                          a\Projects\zstack\Samples\SMGW\CC2530DB\..\..\..\ /
//                          ..\..\Components\hal\include\ -I                  /
//                          D:\developer_tool_install\IAR\ZStack-CC2530-2.5.1 /
//                          a\Projects\zstack\Samples\SMGW\CC2530DB\..\..\..\ /
//                          ..\..\Components\hal\target\CC2530EB\ -I          /
//                          D:\developer_tool_install\IAR\ZStack-CC2530-2.5.1 /
//                          a\Projects\zstack\Samples\SMGW\CC2530DB\..\..\..\ /
//                          ..\..\Components\mac\include\ -I                  /
//                          D:\developer_tool_install\IAR\ZStack-CC2530-2.5.1 /
//                          a\Projects\zstack\Samples\SMGW\CC2530DB\..\..\..\ /
//                          ..\..\Components\mac\high_level\ -I               /
//                          D:\developer_tool_install\IAR\ZStack-CC2530-2.5.1 /
//                          a\Projects\zstack\Samples\SMGW\CC2530DB\..\..\..\ /
//                          ..\..\Components\mac\low_level\srf04\ -I          /
//                          D:\developer_tool_install\IAR\ZStack-CC2530-2.5.1 /
//                          a\Projects\zstack\Samples\SMGW\CC2530DB\..\..\..\ /
//                          ..\..\Components\mac\low_level\srf04\single_chip\ /
//                           -I D:\developer_tool_install\IAR\ZStack-CC2530-2 /
//                          .5.1a\Projects\zstack\Samples\SMGW\CC2530DB\..\.. /
//                          \..\..\..\Components\mt\ -I                       /
//                          D:\developer_tool_install\IAR\ZStack-CC2530-2.5.1 /
//                          a\Projects\zstack\Samples\SMGW\CC2530DB\..\..\..\ /
//                          ..\..\Components\osal\include\ -I                 /
//                          D:\developer_tool_install\IAR\ZStack-CC2530-2.5.1 /
//                          a\Projects\zstack\Samples\SMGW\CC2530DB\..\..\..\ /
//                          ..\..\Components\services\saddr\ -I               /
//                          D:\developer_tool_install\IAR\ZStack-CC2530-2.5.1 /
//                          a\Projects\zstack\Samples\SMGW\CC2530DB\..\..\..\ /
//                          ..\..\Components\services\sdata\ -I               /
//                          D:\developer_tool_install\IAR\ZStack-CC2530-2.5.1 /
//                          a\Projects\zstack\Samples\SMGW\CC2530DB\..\..\..\ /
//                          ..\..\Components\stack\af\ -I                     /
//                          D:\developer_tool_install\IAR\ZStack-CC2530-2.5.1 /
//                          a\Projects\zstack\Samples\SMGW\CC2530DB\..\..\..\ /
//                          ..\..\Components\stack\nwk\ -I                    /
//                          D:\developer_tool_install\IAR\ZStack-CC2530-2.5.1 /
//                          a\Projects\zstack\Samples\SMGW\CC2530DB\..\..\..\ /
//                          ..\..\Components\stack\sapi\ -I                   /
//                          D:\developer_tool_install\IAR\ZStack-CC2530-2.5.1 /
//                          a\Projects\zstack\Samples\SMGW\CC2530DB\..\..\..\ /
//                          ..\..\Components\stack\sec\ -I                    /
//                          D:\developer_tool_install\IAR\ZStack-CC2530-2.5.1 /
//                          a\Projects\zstack\Samples\SMGW\CC2530DB\..\..\..\ /
//                          ..\..\Components\stack\sys\ -I                    /
//                          D:\developer_tool_install\IAR\ZStack-CC2530-2.5.1 /
//                          a\Projects\zstack\Samples\SMGW\CC2530DB\..\..\..\ /
//                          ..\..\Components\stack\zdo\ -I                    /
//                          D:\developer_tool_install\IAR\ZStack-CC2530-2.5.1 /
//                          a\Projects\zstack\Samples\SMGW\CC2530DB\..\..\..\ /
//                          ..\..\Components\zmac\ -I                         /
//                          D:\developer_tool_install\IAR\ZStack-CC2530-2.5.1 /
//                          a\Projects\zstack\Samples\SMGW\CC2530DB\..\..\..\ /
//                          ..\..\Components\zmac\f8w\ -Ohz                   /
//                          --require_prototypes                              /
//    List file          =  D:\developer_tool_install\IAR\ZStack-CC2530-2.5.1 /
//                          a\Projects\zstack\Samples\SMGW\CC2530DB\Coordinat /
//                          orEB\List\cJSON.s51                               /
//                                                                            /
//                                                                            /
///////////////////////////////////////////////////////////////////////////////

        NAME cJSON

        RTMODEL "__SystemLibrary", "CLib"
        RTMODEL "__calling_convention", "xdata_reentrant"
        RTMODEL "__code_model", "banked"
        RTMODEL "__core", "plain"
        RTMODEL "__data_model", "large"
        RTMODEL "__dptr_size", "16"
        RTMODEL "__extended_stack", "disabled"
        RTMODEL "__location_for_constants", "data"
        RTMODEL "__number_of_dptrs", "1"
        RTMODEL "__rt_version", "1"

        RSEG DOVERLAY:DATA:NOROOT(0)
        RSEG IOVERLAY:IDATA:NOROOT(0)
        RSEG ISTACK:IDATA:NOROOT(0)
        RSEG PSTACK:XDATA:NOROOT(0)
        RSEG XSTACK:XDATA:NOROOT(0)

        EXTERN ?ALLOC_XSTACK8
        EXTERN ?BANKED_ENTER_XDATA
        EXTERN ?BANKED_LEAVE_XDATA
        EXTERN ?BDISPATCH
        EXTERN ?BRET
        EXTERN ?CALL_IND
        EXTERN ?DEALLOC_XSTACK8
        EXTERN ?FLT_DIV
        EXTERN ?FLT_EQ
        EXTERN ?FLT_GE
        EXTERN ?FLT_LT
        EXTERN ?FLT_MUL
        EXTERN ?FLT_SUB
        EXTERN ?FLT_TO_L
        EXTERN ?L_ADD_X
        EXTERN ?L_MOV_TO_X
        EXTERN ?L_MOV_X
        EXTERN ?L_TO_FLT
        EXTERN ?MOVE_LONG8_XDATA_XDATA
        EXTERN ?PUSH_XSTACK8_X_FOUR
        EXTERN ?PUSH_XSTACK_I_FOUR
        EXTERN ?PUSH_XSTACK_I_TWO
        EXTERN ?S_SHL
        EXTERN ?UC_SWITCH_SPARSE
        EXTERN ?UL_GE_X
        EXTERN ?UL_SHR
        EXTERN ?V0
        EXTERN ?XLOAD_R2345
        EXTERN ?XSP
        EXTERN ?XSTACK_DISP0_8
        EXTERN ?XSTORE_R2345
        EXTERN __INIT_XDATA_I
        EXTERN __INIT_XDATA_Z

        FUNCTION ??add_item_to_array?relay,0203H
        FUNCTION ??add_item_to_object?relay,0203H
        FUNCTION ??buffer_skip_whitespace?relay,0203H
        PUBLIC ??cJSON_AddArrayToObject?relay
        FUNCTION ??cJSON_AddArrayToObject?relay,0203H
        PUBLIC ??cJSON_AddBoolToObject?relay
        FUNCTION ??cJSON_AddBoolToObject?relay,0203H
        PUBLIC ??cJSON_AddFalseToObject?relay
        FUNCTION ??cJSON_AddFalseToObject?relay,0203H
        PUBLIC ??cJSON_AddItemReferenceToArray?relay
        FUNCTION ??cJSON_AddItemReferenceToArray?relay,0203H
        PUBLIC ??cJSON_AddItemReferenceToObject?relay
        FUNCTION ??cJSON_AddItemReferenceToObject?relay,0203H
        PUBLIC ??cJSON_AddItemToArray?relay
        FUNCTION ??cJSON_AddItemToArray?relay,0203H
        PUBLIC ??cJSON_AddItemToObject?relay
        FUNCTION ??cJSON_AddItemToObject?relay,0203H
        PUBLIC ??cJSON_AddItemToObjectCS?relay
        FUNCTION ??cJSON_AddItemToObjectCS?relay,0203H
        PUBLIC ??cJSON_AddNullToObject?relay
        FUNCTION ??cJSON_AddNullToObject?relay,0203H
        PUBLIC ??cJSON_AddNumberToObject?relay
        FUNCTION ??cJSON_AddNumberToObject?relay,0203H
        PUBLIC ??cJSON_AddObjectToObject?relay
        FUNCTION ??cJSON_AddObjectToObject?relay,0203H
        PUBLIC ??cJSON_AddRawToObject?relay
        FUNCTION ??cJSON_AddRawToObject?relay,0203H
        PUBLIC ??cJSON_AddStringToObject?relay
        FUNCTION ??cJSON_AddStringToObject?relay,0203H
        PUBLIC ??cJSON_AddTrueToObject?relay
        FUNCTION ??cJSON_AddTrueToObject?relay,0203H
        PUBLIC ??cJSON_Compare?relay
        FUNCTION ??cJSON_Compare?relay,0203H
        PUBLIC ??cJSON_CreateArray?relay
        FUNCTION ??cJSON_CreateArray?relay,0203H
        PUBLIC ??cJSON_CreateArrayReference?relay
        FUNCTION ??cJSON_CreateArrayReference?relay,0203H
        PUBLIC ??cJSON_CreateBool?relay
        FUNCTION ??cJSON_CreateBool?relay,0203H
        PUBLIC ??cJSON_CreateDoubleArray?relay
        FUNCTION ??cJSON_CreateDoubleArray?relay,0203H
        PUBLIC ??cJSON_CreateFalse?relay
        FUNCTION ??cJSON_CreateFalse?relay,0203H
        PUBLIC ??cJSON_CreateFloatArray?relay
        FUNCTION ??cJSON_CreateFloatArray?relay,0203H
        PUBLIC ??cJSON_CreateIntArray?relay
        FUNCTION ??cJSON_CreateIntArray?relay,0203H
        PUBLIC ??cJSON_CreateNull?relay
        FUNCTION ??cJSON_CreateNull?relay,0203H
        PUBLIC ??cJSON_CreateNumber?relay
        FUNCTION ??cJSON_CreateNumber?relay,0203H
        PUBLIC ??cJSON_CreateObject?relay
        FUNCTION ??cJSON_CreateObject?relay,0203H
        PUBLIC ??cJSON_CreateObjectReference?relay
        FUNCTION ??cJSON_CreateObjectReference?relay,0203H
        PUBLIC ??cJSON_CreateRaw?relay
        FUNCTION ??cJSON_CreateRaw?relay,0203H
        PUBLIC ??cJSON_CreateString?relay
        FUNCTION ??cJSON_CreateString?relay,0203H
        PUBLIC ??cJSON_CreateStringArray?relay
        FUNCTION ??cJSON_CreateStringArray?relay,0203H
        PUBLIC ??cJSON_CreateStringReference?relay
        FUNCTION ??cJSON_CreateStringReference?relay,0203H
        PUBLIC ??cJSON_CreateTrue?relay
        FUNCTION ??cJSON_CreateTrue?relay,0203H
        PUBLIC ??cJSON_Delete?relay
        FUNCTION ??cJSON_Delete?relay,0203H
        PUBLIC ??cJSON_DeleteItemFromArray?relay
        FUNCTION ??cJSON_DeleteItemFromArray?relay,0203H
        PUBLIC ??cJSON_DeleteItemFromObject?relay
        FUNCTION ??cJSON_DeleteItemFromObject?relay,0203H
        PUBLIC ??cJSON_DeleteItemFromObjectCaseSensitive?relay
        FUNCTION ??cJSON_DeleteItemFromObjectCaseSensitive?relay,0203H
        PUBLIC ??cJSON_DetachItemFromArray?relay
        FUNCTION ??cJSON_DetachItemFromArray?relay,0203H
        PUBLIC ??cJSON_DetachItemFromObject?relay
        FUNCTION ??cJSON_DetachItemFromObject?relay,0203H
        PUBLIC ??cJSON_DetachItemFromObjectCaseSensitive?relay
        FUNCTION ??cJSON_DetachItemFromObjectCaseSensitive?relay,0203H
        PUBLIC ??cJSON_DetachItemViaPointer?relay
        FUNCTION ??cJSON_DetachItemViaPointer?relay,0203H
        PUBLIC ??cJSON_Duplicate?relay
        FUNCTION ??cJSON_Duplicate?relay,0203H
        PUBLIC ??cJSON_GetArrayItem?relay
        FUNCTION ??cJSON_GetArrayItem?relay,0203H
        PUBLIC ??cJSON_GetArraySize?relay
        FUNCTION ??cJSON_GetArraySize?relay,0203H
        PUBLIC ??cJSON_GetErrorPtr?relay
        FUNCTION ??cJSON_GetErrorPtr?relay,0203H
        PUBLIC ??cJSON_GetNumberValue?relay
        FUNCTION ??cJSON_GetNumberValue?relay,0203H
        PUBLIC ??cJSON_GetObjectItem?relay
        FUNCTION ??cJSON_GetObjectItem?relay,0203H
        PUBLIC ??cJSON_GetObjectItemCaseSensitive?relay
        FUNCTION ??cJSON_GetObjectItemCaseSensitive?relay,0203H
        PUBLIC ??cJSON_GetStringValue?relay
        FUNCTION ??cJSON_GetStringValue?relay,0203H
        PUBLIC ??cJSON_HasObjectItem?relay
        FUNCTION ??cJSON_HasObjectItem?relay,0203H
        PUBLIC ??cJSON_InitHooks?relay
        FUNCTION ??cJSON_InitHooks?relay,0203H
        PUBLIC ??cJSON_InsertItemInArray?relay
        FUNCTION ??cJSON_InsertItemInArray?relay,0203H
        PUBLIC ??cJSON_IsArray?relay
        FUNCTION ??cJSON_IsArray?relay,0203H
        PUBLIC ??cJSON_IsBool?relay
        FUNCTION ??cJSON_IsBool?relay,0203H
        PUBLIC ??cJSON_IsFalse?relay
        FUNCTION ??cJSON_IsFalse?relay,0203H
        PUBLIC ??cJSON_IsInvalid?relay
        FUNCTION ??cJSON_IsInvalid?relay,0203H
        PUBLIC ??cJSON_IsNull?relay
        FUNCTION ??cJSON_IsNull?relay,0203H
        PUBLIC ??cJSON_IsNumber?relay
        FUNCTION ??cJSON_IsNumber?relay,0203H
        PUBLIC ??cJSON_IsObject?relay
        FUNCTION ??cJSON_IsObject?relay,0203H
        PUBLIC ??cJSON_IsRaw?relay
        FUNCTION ??cJSON_IsRaw?relay,0203H
        PUBLIC ??cJSON_IsString?relay
        FUNCTION ??cJSON_IsString?relay,0203H
        PUBLIC ??cJSON_IsTrue?relay
        FUNCTION ??cJSON_IsTrue?relay,0203H
        PUBLIC ??cJSON_Minify?relay
        FUNCTION ??cJSON_Minify?relay,0203H
        FUNCTION ??cJSON_New_Item?relay,0203H
        PUBLIC ??cJSON_Parse?relay
        FUNCTION ??cJSON_Parse?relay,0203H
        PUBLIC ??cJSON_ParseWithLength?relay
        FUNCTION ??cJSON_ParseWithLength?relay,0203H
        PUBLIC ??cJSON_ParseWithLengthOpts?relay
        FUNCTION ??cJSON_ParseWithLengthOpts?relay,0203H
        PUBLIC ??cJSON_ParseWithOpts?relay
        FUNCTION ??cJSON_ParseWithOpts?relay,0203H
        PUBLIC ??cJSON_Print?relay
        FUNCTION ??cJSON_Print?relay,0203H
        PUBLIC ??cJSON_PrintBuffered?relay
        FUNCTION ??cJSON_PrintBuffered?relay,0203H
        PUBLIC ??cJSON_PrintPreallocated?relay
        FUNCTION ??cJSON_PrintPreallocated?relay,0203H
        PUBLIC ??cJSON_PrintUnformatted?relay
        FUNCTION ??cJSON_PrintUnformatted?relay,0203H
        PUBLIC ??cJSON_ReplaceItemInArray?relay
        FUNCTION ??cJSON_ReplaceItemInArray?relay,0203H
        PUBLIC ??cJSON_ReplaceItemInObject?relay
        FUNCTION ??cJSON_ReplaceItemInObject?relay,0203H
        PUBLIC ??cJSON_ReplaceItemInObjectCaseSensitive?relay
        FUNCTION ??cJSON_ReplaceItemInObjectCaseSensitive?relay,0203H
        PUBLIC ??cJSON_ReplaceItemViaPointer?relay
        FUNCTION ??cJSON_ReplaceItemViaPointer?relay,0203H
        PUBLIC ??cJSON_SetNumberHelper?relay
        FUNCTION ??cJSON_SetNumberHelper?relay,0203H
        PUBLIC ??cJSON_SetValuestring?relay
        FUNCTION ??cJSON_SetValuestring?relay,0203H
        PUBLIC ??cJSON_Version?relay
        FUNCTION ??cJSON_Version?relay,0203H
        PUBLIC ??cJSON_free?relay
        FUNCTION ??cJSON_free?relay,0203H
        PUBLIC ??cJSON_malloc?relay
        FUNCTION ??cJSON_malloc?relay,0203H
        FUNCTION ??cJSON_strdup?relay,0203H
        FUNCTION ??case_insensitive_strcmp?relay,0203H
        FUNCTION ??compare_double?relay,0203H
        FUNCTION ??create_reference?relay,0203H
        FUNCTION ??ensure?relay,0203H
        PUBWEAK ??free?relay
        FUNCTION ??free?relay,0203H
        FUNCTION ??get_array_item?relay,0203H
        FUNCTION ??get_object_item?relay,0203H
        PUBWEAK ??malloc?relay
        FUNCTION ??malloc?relay,0203H
        FUNCTION ??minify_string?relay,0203H
        FUNCTION ??parse_array?relay,0203H
        FUNCTION ??parse_hex4?relay,0203H
        FUNCTION ??parse_number?relay,0203H
        FUNCTION ??parse_object?relay,0203H
        FUNCTION ??parse_string?relay,0203H
        FUNCTION ??parse_value?relay,0203H
        FUNCTION ??print?relay,0203H
        FUNCTION ??print_array?relay,0203H
        FUNCTION ??print_number?relay,0203H
        FUNCTION ??print_object?relay,0203H
        FUNCTION ??print_string_ptr?relay,0203H
        FUNCTION ??print_value?relay,0203H
        PUBWEAK ??realloc?relay
        FUNCTION ??realloc?relay,0203H
        FUNCTION ??replace_item_in_object?relay,0203H
        FUNCTION ??suffix_object?relay,0203H
        FUNCTION ??update_offset?relay,0203H
        FUNCTION ??utf16_literal_to_utf8?relay,0203H
        PUBWEAK __Constant_0
        PUBWEAK __Constant_10000
        PUBWEAK __Constant_110000
        PUBWEAK __Constant_34000000
        PUBWEAK __Constant_46fffe00
        PUBWEAK __Constant_80
        PUBWEAK __Constant_800
        PUBWEAK __Constant_c6fffffe
        FUNCTION add_item_to_array,021203H
        ARGFRAME XSTACK, 16, STACK
        ARGFRAME IOVERLAY, 0, STATIC
        ARGFRAME DOVERLAY, 0, STATIC
        LOCFRAME XSTACK, 10, STACK
        FUNCTION add_item_to_object,021203H
        ARGFRAME XSTACK, 22, STACK
        ARGFRAME IOVERLAY, 0, STATIC
        ARGFRAME DOVERLAY, 0, STATIC
        LOCFRAME XSTACK, 16, STACK
        FUNCTION buffer_skip_whitespace,0203H
        ARGFRAME XSTACK, 30, STACK
        ARGFRAME IOVERLAY, 0, STATIC
        ARGFRAME DOVERLAY, 0, STATIC
        LOCFRAME ISTACK, 4, STACK
        PUBLIC cJSON_AddArrayToObject
        FUNCTION cJSON_AddArrayToObject,021203H
        ARGFRAME XSTACK, 0, STACK
        LOCFRAME XSTACK, 20, STACK
        PUBLIC cJSON_AddBoolToObject
        FUNCTION cJSON_AddBoolToObject,021203H
        ARGFRAME XSTACK, 2, STACK
        LOCFRAME XSTACK, 20, STACK
        PUBLIC cJSON_AddFalseToObject
        FUNCTION cJSON_AddFalseToObject,021203H
        ARGFRAME XSTACK, 0, STACK
        LOCFRAME XSTACK, 20, STACK
        PUBLIC cJSON_AddItemReferenceToArray
        FUNCTION cJSON_AddItemReferenceToArray,021203H
        ARGFRAME XSTACK, 0, STACK
        LOCFRAME XSTACK, 9, STACK
        PUBLIC cJSON_AddItemReferenceToObject
        FUNCTION cJSON_AddItemReferenceToObject,021203H
        ARGFRAME XSTACK, 2, STACK
        LOCFRAME XSTACK, 18, STACK
        PUBLIC cJSON_AddItemToArray
        FUNCTION cJSON_AddItemToArray,021203H
        ARGFRAME XSTACK, 0, STACK
        LOCFRAME ISTACK, 2, STACK
        PUBLIC cJSON_AddItemToObject
        FUNCTION cJSON_AddItemToObject,021203H
        ARGFRAME XSTACK, 2, STACK
        LOCFRAME XSTACK, 18, STACK
        PUBLIC cJSON_AddItemToObjectCS
        FUNCTION cJSON_AddItemToObjectCS,021203H
        ARGFRAME XSTACK, 2, STACK
        LOCFRAME XSTACK, 18, STACK
        PUBLIC cJSON_AddNullToObject
        FUNCTION cJSON_AddNullToObject,021203H
        ARGFRAME XSTACK, 0, STACK
        LOCFRAME XSTACK, 20, STACK
        PUBLIC cJSON_AddNumberToObject
        FUNCTION cJSON_AddNumberToObject,021203H
        ARGFRAME XSTACK, 4, STACK
        LOCFRAME XSTACK, 22, STACK
        PUBLIC cJSON_AddObjectToObject
        FUNCTION cJSON_AddObjectToObject,021203H
        ARGFRAME XSTACK, 0, STACK
        LOCFRAME XSTACK, 20, STACK
        PUBLIC cJSON_AddRawToObject
        FUNCTION cJSON_AddRawToObject,021203H
        ARGFRAME XSTACK, 2, STACK
        LOCFRAME XSTACK, 20, STACK
        PUBLIC cJSON_AddStringToObject
        FUNCTION cJSON_AddStringToObject,021203H
        ARGFRAME XSTACK, 2, STACK
        LOCFRAME XSTACK, 20, STACK
        PUBLIC cJSON_AddTrueToObject
        FUNCTION cJSON_AddTrueToObject,021203H
        ARGFRAME XSTACK, 0, STACK
        LOCFRAME XSTACK, 20, STACK
        PUBLIC cJSON_Compare
        FUNCTION cJSON_Compare,021203H
        ARGFRAME XSTACK, 20, STACK
        ARGFRAME IOVERLAY, 0, STATIC
        ARGFRAME DOVERLAY, 0, STATIC
        LOCFRAME XSTACK, 22, STACK
        PUBLIC cJSON_CreateArray
        FUNCTION cJSON_CreateArray,021203H
        ARGFRAME XSTACK, 22, STACK
        ARGFRAME IOVERLAY, 0, STATIC
        ARGFRAME DOVERLAY, 0, STATIC
        LOCFRAME XSTACK, 10, STACK
        PUBLIC cJSON_CreateArrayReference
        FUNCTION cJSON_CreateArrayReference,021203H
        ARGFRAME XSTACK, 0, STACK
        LOCFRAME XSTACK, 10, STACK
        PUBLIC cJSON_CreateBool
        FUNCTION cJSON_CreateBool,021203H
        ARGFRAME XSTACK, 14, STACK
        ARGFRAME IOVERLAY, 0, STATIC
        ARGFRAME DOVERLAY, 0, STATIC
        LOCFRAME XSTACK, 10, STACK
        PUBLIC cJSON_CreateDoubleArray
        FUNCTION cJSON_CreateDoubleArray,021203H
        ARGFRAME XSTACK, 0, STACK
        LOCFRAME XSTACK, 20, STACK
        PUBLIC cJSON_CreateFalse
        FUNCTION cJSON_CreateFalse,021203H
        ARGFRAME XSTACK, 14, STACK
        ARGFRAME IOVERLAY, 0, STATIC
        ARGFRAME DOVERLAY, 0, STATIC
        LOCFRAME XSTACK, 10, STACK
        PUBLIC cJSON_CreateFloatArray
        FUNCTION cJSON_CreateFloatArray,021203H
        ARGFRAME XSTACK, 0, STACK
        LOCFRAME XSTACK, 20, STACK
        PUBLIC cJSON_CreateIntArray
        FUNCTION cJSON_CreateIntArray,021203H
        ARGFRAME XSTACK, 0, STACK
        LOCFRAME XSTACK, 22, STACK
        PUBLIC cJSON_CreateNull
        FUNCTION cJSON_CreateNull,021203H
        ARGFRAME XSTACK, 14, STACK
        ARGFRAME IOVERLAY, 0, STATIC
        ARGFRAME DOVERLAY, 0, STATIC
        LOCFRAME XSTACK, 10, STACK
        PUBLIC cJSON_CreateNumber
        FUNCTION cJSON_CreateNumber,021203H
        ARGFRAME XSTACK, 22, STACK
        ARGFRAME IOVERLAY, 0, STATIC
        ARGFRAME DOVERLAY, 0, STATIC
        LOCFRAME XSTACK, 16, STACK
        PUBLIC cJSON_CreateObject
        FUNCTION cJSON_CreateObject,021203H
        ARGFRAME XSTACK, 14, STACK
        ARGFRAME IOVERLAY, 0, STATIC
        ARGFRAME DOVERLAY, 0, STATIC
        LOCFRAME XSTACK, 10, STACK
        PUBLIC cJSON_CreateObjectReference
        FUNCTION cJSON_CreateObjectReference,021203H
        ARGFRAME XSTACK, 0, STACK
        LOCFRAME XSTACK, 10, STACK
        PUBLIC cJSON_CreateRaw
        FUNCTION cJSON_CreateRaw,021203H
        ARGFRAME XSTACK, 14, STACK
        ARGFRAME IOVERLAY, 0, STATIC
        ARGFRAME DOVERLAY, 0, STATIC
        LOCFRAME XSTACK, 12, STACK
        PUBLIC cJSON_CreateString
        FUNCTION cJSON_CreateString,021203H
        ARGFRAME XSTACK, 20, STACK
        ARGFRAME IOVERLAY, 0, STATIC
        ARGFRAME DOVERLAY, 0, STATIC
        LOCFRAME XSTACK, 12, STACK
        PUBLIC cJSON_CreateStringArray
        FUNCTION cJSON_CreateStringArray,021203H
        ARGFRAME XSTACK, 0, STACK
        LOCFRAME XSTACK, 20, STACK
        PUBLIC cJSON_CreateStringReference
        FUNCTION cJSON_CreateStringReference,021203H
        ARGFRAME XSTACK, 0, STACK
        LOCFRAME XSTACK, 10, STACK
        PUBLIC cJSON_CreateTrue
        FUNCTION cJSON_CreateTrue,021203H
        ARGFRAME XSTACK, 14, STACK
        ARGFRAME IOVERLAY, 0, STATIC
        ARGFRAME DOVERLAY, 0, STATIC
        LOCFRAME XSTACK, 10, STACK
        PUBLIC cJSON_Delete
        FUNCTION cJSON_Delete,021203H
        ARGFRAME XSTACK, 30, STACK
        ARGFRAME IOVERLAY, 0, STATIC
        ARGFRAME DOVERLAY, 0, STATIC
        LOCFRAME XSTACK, 10, STACK
        PUBLIC cJSON_DeleteItemFromArray
        FUNCTION cJSON_DeleteItemFromArray,021203H
        ARGFRAME XSTACK, 0, STACK
        LOCFRAME ISTACK, 2, STACK
        PUBLIC cJSON_DeleteItemFromObject
        FUNCTION cJSON_DeleteItemFromObject,021203H
        ARGFRAME XSTACK, 0, STACK
        LOCFRAME ISTACK, 2, STACK
        PUBLIC cJSON_DeleteItemFromObjectCaseSensitive
        FUNCTION cJSON_DeleteItemFromObjectCaseSensitive,021203H
        ARGFRAME XSTACK, 0, STACK
        LOCFRAME ISTACK, 2, STACK
        PUBLIC cJSON_DetachItemFromArray
        FUNCTION cJSON_DetachItemFromArray,021203H
        ARGFRAME XSTACK, 0, STACK
        ARGFRAME IOVERLAY, 0, STATIC
        ARGFRAME DOVERLAY, 0, STATIC
        LOCFRAME XSTACK, 9, STACK
        PUBLIC cJSON_DetachItemFromObject
        FUNCTION cJSON_DetachItemFromObject,021203H
        ARGFRAME XSTACK, 0, STACK
        ARGFRAME IOVERLAY, 0, STATIC
        ARGFRAME DOVERLAY, 0, STATIC
        LOCFRAME XSTACK, 9, STACK
        PUBLIC cJSON_DetachItemFromObjectCaseSensitive
        FUNCTION cJSON_DetachItemFromObjectCaseSensitive,021203H
        ARGFRAME XSTACK, 0, STACK
        ARGFRAME IOVERLAY, 0, STATIC
        ARGFRAME DOVERLAY, 0, STATIC
        LOCFRAME XSTACK, 9, STACK
        PUBLIC cJSON_DetachItemViaPointer
        FUNCTION cJSON_DetachItemViaPointer,0203H
        ARGFRAME XSTACK, 9, STACK
        ARGFRAME IOVERLAY, 0, STATIC
        ARGFRAME DOVERLAY, 0, STATIC
        LOCFRAME XSTACK, 9, STACK
        PUBLIC cJSON_Duplicate
        FUNCTION cJSON_Duplicate,021203H
        ARGFRAME XSTACK, 18, STACK
        ARGFRAME IOVERLAY, 0, STATIC
        ARGFRAME DOVERLAY, 0, STATIC
        LOCFRAME XSTACK, 18, STACK
        PUBLIC cJSON_GetArrayItem
        FUNCTION cJSON_GetArrayItem,021203H
        ARGFRAME XSTACK, 0, STACK
        LOCFRAME ISTACK, 2, STACK
        PUBLIC cJSON_GetArraySize
        FUNCTION cJSON_GetArraySize,0203H
        ARGFRAME XSTACK, 0, STACK
        LOCFRAME ISTACK, 2, STACK
        PUBLIC cJSON_GetErrorPtr
        FUNCTION cJSON_GetErrorPtr,0203H
        ARGFRAME XSTACK, 0, STACK
        LOCFRAME ISTACK, 2, STACK
        PUBLIC cJSON_GetNumberValue
        FUNCTION cJSON_GetNumberValue,021203H
        ARGFRAME XSTACK, 0, STACK
        LOCFRAME XSTACK, 16, STACK
        PUBLIC cJSON_GetObjectItem
        FUNCTION cJSON_GetObjectItem,021203H
        ARGFRAME XSTACK, 10, STACK
        ARGFRAME IOVERLAY, 0, STATIC
        ARGFRAME DOVERLAY, 0, STATIC
        LOCFRAME XSTACK, 12, STACK
        PUBLIC cJSON_GetObjectItemCaseSensitive
        FUNCTION cJSON_GetObjectItemCaseSensitive,021203H
        ARGFRAME XSTACK, 9, STACK
        ARGFRAME IOVERLAY, 0, STATIC
        ARGFRAME DOVERLAY, 0, STATIC
        LOCFRAME XSTACK, 12, STACK
        PUBLIC cJSON_GetStringValue
        FUNCTION cJSON_GetStringValue,021203H
        ARGFRAME XSTACK, 0, STACK
        LOCFRAME XSTACK, 10, STACK
        PUBLIC cJSON_HasObjectItem
        FUNCTION cJSON_HasObjectItem,021203H
        ARGFRAME XSTACK, 0, STACK
        LOCFRAME XSTACK, 10, STACK
        PUBLIC cJSON_InitHooks
        FUNCTION cJSON_InitHooks,0203H
        ARGFRAME XSTACK, 0, STACK
        LOCFRAME ISTACK, 2, STACK
        PUBLIC cJSON_InsertItemInArray
        FUNCTION cJSON_InsertItemInArray,021203H
        ARGFRAME XSTACK, 2, STACK
        LOCFRAME XSTACK, 12, STACK
        PUBLIC cJSON_IsArray
        FUNCTION cJSON_IsArray,0203H
        ARGFRAME XSTACK, 0, STACK
        LOCFRAME ISTACK, 2, STACK
        PUBLIC cJSON_IsBool
        FUNCTION cJSON_IsBool,0203H
        ARGFRAME XSTACK, 0, STACK
        LOCFRAME ISTACK, 2, STACK
        PUBLIC cJSON_IsFalse
        FUNCTION cJSON_IsFalse,0203H
        ARGFRAME XSTACK, 0, STACK
        LOCFRAME ISTACK, 2, STACK
        PUBLIC cJSON_IsInvalid
        FUNCTION cJSON_IsInvalid,0203H
        ARGFRAME XSTACK, 0, STACK
        LOCFRAME ISTACK, 2, STACK
        PUBLIC cJSON_IsNull
        FUNCTION cJSON_IsNull,0203H
        ARGFRAME XSTACK, 0, STACK
        LOCFRAME ISTACK, 2, STACK
        PUBLIC cJSON_IsNumber
        FUNCTION cJSON_IsNumber,0203H
        ARGFRAME XSTACK, 16, STACK
        ARGFRAME IOVERLAY, 0, STATIC
        ARGFRAME DOVERLAY, 0, STATIC
        LOCFRAME ISTACK, 2, STACK
        PUBLIC cJSON_IsObject
        FUNCTION cJSON_IsObject,0203H
        ARGFRAME XSTACK, 0, STACK
        LOCFRAME ISTACK, 2, STACK
        PUBLIC cJSON_IsRaw
        FUNCTION cJSON_IsRaw,0203H
        ARGFRAME XSTACK, 0, STACK
        LOCFRAME ISTACK, 2, STACK
        PUBLIC cJSON_IsString
        FUNCTION cJSON_IsString,0203H
        ARGFRAME XSTACK, 10, STACK
        ARGFRAME IOVERLAY, 0, STATIC
        ARGFRAME DOVERLAY, 0, STATIC
        LOCFRAME ISTACK, 2, STACK
        PUBLIC cJSON_IsTrue
        FUNCTION cJSON_IsTrue,0203H
        ARGFRAME XSTACK, 0, STACK
        LOCFRAME ISTACK, 2, STACK
        PUBLIC cJSON_Minify
        FUNCTION cJSON_Minify,021203H
        ARGFRAME XSTACK, 0, STACK
        LOCFRAME ISTACK, 3, STACK
        LOCFRAME XSTACK, 4, STACK
        FUNCTION cJSON_New_Item,021203H
        ARGFRAME XSTACK, 30, STACK
        ARGFRAME IOVERLAY, 0, STATIC
        ARGFRAME DOVERLAY, 0, STATIC
        LOCFRAME XSTACK, 12, STACK
        PUBLIC cJSON_Parse
        FUNCTION cJSON_Parse,021203H
        ARGFRAME XSTACK, 0, STACK
        LOCFRAME XSTACK, 12, STACK
        PUBLIC cJSON_ParseWithLength
        FUNCTION cJSON_ParseWithLength,021203H
        ARGFRAME XSTACK, 0, STACK
        LOCFRAME XSTACK, 14, STACK
        PUBLIC cJSON_ParseWithLengthOpts
        FUNCTION cJSON_ParseWithLengthOpts,021203H
        ARGFRAME XSTACK, 14, STACK
        ARGFRAME IOVERLAY, 0, STATIC
        ARGFRAME DOVERLAY, 0, STATIC
        LOCFRAME ISTACK, 2, STACK
        LOCFRAME XSTACK, 32, STACK
        PUBLIC cJSON_ParseWithOpts
        FUNCTION cJSON_ParseWithOpts,021203H
        ARGFRAME XSTACK, 12, STACK
        ARGFRAME IOVERLAY, 0, STATIC
        ARGFRAME DOVERLAY, 0, STATIC
        LOCFRAME XSTACK, 14, STACK
        PUBLIC cJSON_Print
        FUNCTION cJSON_Print,021203H
        ARGFRAME XSTACK, 0, STACK
        LOCFRAME XSTACK, 12, STACK
        PUBLIC cJSON_PrintBuffered
        FUNCTION cJSON_PrintBuffered,021203H
        ARGFRAME XSTACK, 2, STACK
        LOCFRAME ISTACK, 2, STACK
        LOCFRAME XSTACK, 30, STACK
        PUBLIC cJSON_PrintPreallocated
        FUNCTION cJSON_PrintPreallocated,021203H
        ARGFRAME XSTACK, 4, STACK
        LOCFRAME ISTACK, 2, STACK
        LOCFRAME XSTACK, 28, STACK
        PUBLIC cJSON_PrintUnformatted
        FUNCTION cJSON_PrintUnformatted,021203H
        ARGFRAME XSTACK, 0, STACK
        LOCFRAME XSTACK, 12, STACK
        PUBLIC cJSON_ReplaceItemInArray
        FUNCTION cJSON_ReplaceItemInArray,021203H
        ARGFRAME XSTACK, 2, STACK
        LOCFRAME XSTACK, 12, STACK
        PUBLIC cJSON_ReplaceItemInObject
        FUNCTION cJSON_ReplaceItemInObject,021203H
        ARGFRAME XSTACK, 2, STACK
        LOCFRAME XSTACK, 16, STACK
        PUBLIC cJSON_ReplaceItemInObjectCaseSensitive
        FUNCTION cJSON_ReplaceItemInObjectCaseSensitive,021203H
        ARGFRAME XSTACK, 2, STACK
        LOCFRAME XSTACK, 16, STACK
        PUBLIC cJSON_ReplaceItemViaPointer
        FUNCTION cJSON_ReplaceItemViaPointer,021203H
        ARGFRAME XSTACK, 16, STACK
        ARGFRAME IOVERLAY, 0, STATIC
        ARGFRAME DOVERLAY, 0, STATIC
        LOCFRAME XSTACK, 11, STACK
        PUBLIC cJSON_SetNumberHelper
        FUNCTION cJSON_SetNumberHelper,0203H
        ARGFRAME XSTACK, 4, STACK
        LOCFRAME XSTACK, 16, STACK
        PUBLIC cJSON_SetValuestring
        FUNCTION cJSON_SetValuestring,021203H
        ARGFRAME XSTACK, 0, STACK
        LOCFRAME XSTACK, 14, STACK
        PUBLIC cJSON_Version
        FUNCTION cJSON_Version,021203H
        ARGFRAME XSTACK, 0, STACK
        LOCFRAME XSTACK, 16, STACK
        PUBLIC cJSON_free
        FUNCTION cJSON_free,0203H
        ARGFRAME XSTACK, 14, STACK
        ARGFRAME IOVERLAY, 0, STATIC
        ARGFRAME DOVERLAY, 0, STATIC
        LOCFRAME ISTACK, 2, STACK
        PUBLIC cJSON_malloc
        FUNCTION cJSON_malloc,0203H
        ARGFRAME XSTACK, 0, STACK
        LOCFRAME ISTACK, 2, STACK
        FUNCTION cJSON_strdup,021203H
        ARGFRAME XSTACK, 18, STACK
        ARGFRAME IOVERLAY, 0, STATIC
        ARGFRAME DOVERLAY, 0, STATIC
        LOCFRAME XSTACK, 16, STACK
        FUNCTION case_insensitive_strcmp,0203H
        ARGFRAME XSTACK, 12, STACK
        ARGFRAME IOVERLAY, 0, STATIC
        ARGFRAME DOVERLAY, 0, STATIC
        LOCFRAME XSTACK, 9, STACK
        FUNCTION compare_double,0203H
        ARGFRAME XSTACK, 50, STACK
        ARGFRAME IOVERLAY, 0, STATIC
        ARGFRAME DOVERLAY, 0, STATIC
        LOCFRAME XSTACK, 24, STACK
        FUNCTION create_reference,021203H
        ARGFRAME XSTACK, 16, STACK
        ARGFRAME IOVERLAY, 0, STATIC
        ARGFRAME DOVERLAY, 0, STATIC
        LOCFRAME XSTACK, 14, STACK
        FUNCTION ensure,021203H
        ARGFRAME XSTACK, 46, STACK
        ARGFRAME IOVERLAY, 0, STATIC
        ARGFRAME DOVERLAY, 0, STATIC
        LOCFRAME ISTACK, 2, STACK
        LOCFRAME XSTACK, 16, STACK
        PUBWEAK free
        FUNCTION free,021603H
        ARGFRAME XSTACK, 0, STACK
        LOCFRAME ISTACK, 2, STACK
        FUNCTION get_array_item,0203H
        ARGFRAME XSTACK, 12, STACK
        ARGFRAME IOVERLAY, 0, STATIC
        ARGFRAME DOVERLAY, 0, STATIC
        LOCFRAME ISTACK, 2, STACK
        FUNCTION get_object_item,021203H
        ARGFRAME XSTACK, 20, STACK
        ARGFRAME IOVERLAY, 0, STATIC
        ARGFRAME DOVERLAY, 0, STATIC
        LOCFRAME XSTACK, 12, STACK
        PUBWEAK malloc
        FUNCTION malloc,021603H
        ARGFRAME XSTACK, 0, STACK
        LOCFRAME ISTACK, 2, STACK
        FUNCTION minify_string,0203H
        ARGFRAME XSTACK, 4, STACK
        ARGFRAME IOVERLAY, 0, STATIC
        ARGFRAME DOVERLAY, 0, STATIC
        LOCFRAME ISTACK, 1, STACK
        LOCFRAME XSTACK, 9, STACK
        FUNCTION parse_array,021203H
        ARGFRAME XSTACK, 12, STACK
        ARGFRAME IOVERLAY, 0, STATIC
        ARGFRAME DOVERLAY, 0, STATIC
        LOCFRAME ISTACK, 2, STACK
        LOCFRAME XSTACK, 16, STACK
        FUNCTION parse_hex4,0203H
        ARGFRAME XSTACK, 18, STACK
        ARGFRAME IOVERLAY, 0, STATIC
        ARGFRAME DOVERLAY, 0, STATIC
        LOCFRAME XSTACK, 10, STACK
        FUNCTION parse_number,0a1203H
        ARGFRAME XSTACK, 12, STACK
        ARGFRAME IOVERLAY, 0, STATIC
        ARGFRAME DOVERLAY, 0, STATIC
        LOCFRAME ISTACK, 2, STACK
        LOCFRAME XSTACK, 86, STACK
        FUNCTION parse_object,021203H
        ARGFRAME XSTACK, 12, STACK
        ARGFRAME IOVERLAY, 0, STATIC
        ARGFRAME DOVERLAY, 0, STATIC
        LOCFRAME ISTACK, 2, STACK
        LOCFRAME XSTACK, 16, STACK
        FUNCTION parse_string,021203H
        ARGFRAME XSTACK, 16, STACK
        ARGFRAME IOVERLAY, 0, STATIC
        ARGFRAME DOVERLAY, 0, STATIC
        LOCFRAME ISTACK, 2, STACK
        LOCFRAME XSTACK, 22, STACK
        FUNCTION parse_value,021203H
        ARGFRAME XSTACK, 30, STACK
        ARGFRAME IOVERLAY, 0, STATIC
        ARGFRAME DOVERLAY, 0, STATIC
        LOCFRAME ISTACK, 2, STACK
        LOCFRAME XSTACK, 14, STACK
        FUNCTION print,021203H
        ARGFRAME XSTACK, 12, STACK
        ARGFRAME IOVERLAY, 0, STATIC
        ARGFRAME DOVERLAY, 0, STATIC
        LOCFRAME ISTACK, 2, STACK
        LOCFRAME XSTACK, 36, STACK
        FUNCTION print_array,021203H
        ARGFRAME XSTACK, 14, STACK
        ARGFRAME IOVERLAY, 0, STATIC
        ARGFRAME DOVERLAY, 0, STATIC
        LOCFRAME XSTACK, 14, STACK
        FUNCTION print_number,021203H
        ARGFRAME XSTACK, 14, STACK
        ARGFRAME IOVERLAY, 0, STATIC
        ARGFRAME DOVERLAY, 0, STATIC
        LOCFRAME ISTACK, 2, STACK
        LOCFRAME XSTACK, 50, STACK
        FUNCTION print_object,021203H
        ARGFRAME XSTACK, 14, STACK
        ARGFRAME IOVERLAY, 0, STATIC
        ARGFRAME DOVERLAY, 0, STATIC
        LOCFRAME XSTACK, 14, STACK
        FUNCTION print_string_ptr,021203H
        ARGFRAME XSTACK, 14, STACK
        ARGFRAME IOVERLAY, 0, STATIC
        ARGFRAME DOVERLAY, 0, STATIC
        LOCFRAME ISTACK, 1, STACK
        LOCFRAME XSTACK, 20, STACK
        FUNCTION print_value,021203H
        ARGFRAME XSTACK, 34, STACK
        ARGFRAME IOVERLAY, 0, STATIC
        ARGFRAME DOVERLAY, 0, STATIC
        LOCFRAME XSTACK, 16, STACK
        PUBWEAK realloc
        FUNCTION realloc,021603H
        ARGFRAME XSTACK, 0, STACK
        LOCFRAME ISTACK, 2, STACK
        FUNCTION replace_item_in_object,021203H
        ARGFRAME XSTACK, 16, STACK
        ARGFRAME IOVERLAY, 0, STATIC
        ARGFRAME DOVERLAY, 0, STATIC
        LOCFRAME XSTACK, 18, STACK
        FUNCTION suffix_object,0203H
        ARGFRAME XSTACK, 22, STACK
        ARGFRAME IOVERLAY, 0, STATIC
        ARGFRAME DOVERLAY, 0, STATIC
        LOCFRAME ISTACK, 2, STACK
        FUNCTION update_offset,021203H
        ARGFRAME XSTACK, 34, STACK
        ARGFRAME IOVERLAY, 0, STATIC
        ARGFRAME DOVERLAY, 0, STATIC
        LOCFRAME XSTACK, 10, STACK
        FUNCTION utf16_literal_to_utf8,021203H
        ARGFRAME XSTACK, 22, STACK
        ARGFRAME IOVERLAY, 0, STATIC
        ARGFRAME DOVERLAY, 0, STATIC
        LOCFRAME ISTACK, 1, STACK
        LOCFRAME XSTACK, 18, STACK
        
        CFI Names cfiNames0
        CFI StackFrame CFA_SP SP IDATA
        CFI StackFrame CFA_PSP16 PSP16 XDATA
        CFI StackFrame CFA_XSP16 XSP16 XDATA
        CFI StaticOverlayFrame CFA_IOVERLAY IOVERLAY
        CFI StaticOverlayFrame CFA_DOVERLAY DOVERLAY
        CFI Resource `PSW.CY`:1, `B.BR0`:1, `B.BR1`:1, `B.BR2`:1, `B.BR3`:1
        CFI Resource `B.BR4`:1, `B.BR5`:1, `B.BR6`:1, `B.BR7`:1, `VB.BR8`:1
        CFI Resource `VB.BR9`:1, `VB.BR10`:1, `VB.BR11`:1, `VB.BR12`:1
        CFI Resource `VB.BR13`:1, `VB.BR14`:1, `VB.BR15`:1, VB:8, B:8, A:8
        CFI Resource PSW:8, DPL0:8, DPH0:8, R0:8, R1:8, R2:8, R3:8, R4:8, R5:8
        CFI Resource R6:8, R7:8, V0:8, V1:8, V2:8, V3:8, V4:8, V5:8, V6:8, V7:8
        CFI Resource V8:8, V9:8, V10:8, V11:8, V12:8, V13:8, V14:8, V15:8, SP:8
        CFI Resource PSPH:8, PSPL:8, PSP16:16, XSPH:8, XSPL:8, XSP16:16
        CFI VirtualResource ?RET:24
        CFI Resource ?BRET_EXT:8
        CFI VirtualResource ?RET_HIGH:8, ?RET_LOW:8
        CFI ResourceParts PSP16 PSPH, PSPL
        CFI ResourceParts XSP16 XSPH, XSPL
        CFI ResourceParts ?RET ?BRET_EXT, ?RET_HIGH, ?RET_LOW
        CFI EndNames cfiNames0
        
        CFI Common cfiCommon0 Using cfiNames0
        CFI CodeAlign 1
        CFI DataAlign -1
        CFI ReturnAddress ?RET CODE
        CFI CFA_DOVERLAY Used
        CFI CFA_IOVERLAY Used
        CFI CFA_SP SP+-3
        CFI CFA_PSP16 PSP16+0
        CFI CFA_XSP16 XSP16+0
        CFI `PSW.CY` SameValue
        CFI `B.BR0` SameValue
        CFI `B.BR1` SameValue
        CFI `B.BR2` SameValue
        CFI `B.BR3` SameValue
        CFI `B.BR4` SameValue
        CFI `B.BR5` SameValue
        CFI `B.BR6` SameValue
        CFI `B.BR7` SameValue
        CFI `VB.BR8` SameValue
        CFI `VB.BR9` SameValue
        CFI `VB.BR10` SameValue
        CFI `VB.BR11` SameValue
        CFI `VB.BR12` SameValue
        CFI `VB.BR13` SameValue
        CFI `VB.BR14` SameValue
        CFI `VB.BR15` SameValue
        CFI VB SameValue
        CFI B Undefined
        CFI A Undefined
        CFI PSW SameValue
        CFI DPL0 SameValue
        CFI DPH0 SameValue
        CFI R0 Undefined
        CFI R1 Undefined
        CFI R2 Undefined
        CFI R3 Undefined
        CFI R4 Undefined
        CFI R5 Undefined
        CFI R6 SameValue
        CFI R7 SameValue
        CFI V0 SameValue
        CFI V1 SameValue
        CFI V2 SameValue
        CFI V3 SameValue
        CFI V4 SameValue
        CFI V5 SameValue
        CFI V6 SameValue
        CFI V7 SameValue
        CFI V8 SameValue
        CFI V9 SameValue
        CFI V10 SameValue
        CFI V11 SameValue
        CFI V12 SameValue
        CFI V13 SameValue
        CFI V14 SameValue
        CFI V15 SameValue
        CFI PSPH Undefined
        CFI PSPL Undefined
        CFI XSPH Undefined
        CFI XSPL Undefined
        CFI ?RET Concat
        CFI ?BRET_EXT Frame(CFA_SP, 3)
        CFI ?RET_HIGH Frame(CFA_SP, 2)
        CFI ?RET_LOW Frame(CFA_SP, 1)
        CFI EndCommon cfiCommon0
        
        
        CFI Common cfiCommon1 Using cfiNames0
        CFI CodeAlign 1
        CFI DataAlign -1
        CFI ReturnAddress ?RET CODE
        CFI CFA_DOVERLAY Used
        CFI CFA_IOVERLAY Used
        CFI CFA_SP SP+-2
        CFI CFA_PSP16 PSP16+0
        CFI CFA_XSP16 XSP16+0
        CFI `PSW.CY` SameValue
        CFI `B.BR0` SameValue
        CFI `B.BR1` SameValue
        CFI `B.BR2` SameValue
        CFI `B.BR3` SameValue
        CFI `B.BR4` SameValue
        CFI `B.BR5` SameValue
        CFI `B.BR6` SameValue
        CFI `B.BR7` SameValue
        CFI `VB.BR8` SameValue
        CFI `VB.BR9` SameValue
        CFI `VB.BR10` SameValue
        CFI `VB.BR11` SameValue
        CFI `VB.BR12` SameValue
        CFI `VB.BR13` SameValue
        CFI `VB.BR14` SameValue
        CFI `VB.BR15` SameValue
        CFI VB SameValue
        CFI B SameValue
        CFI A SameValue
        CFI PSW SameValue
        CFI DPL0 SameValue
        CFI DPH0 SameValue
        CFI R0 SameValue
        CFI R1 SameValue
        CFI R2 SameValue
        CFI R3 SameValue
        CFI R4 SameValue
        CFI R5 SameValue
        CFI R6 SameValue
        CFI R7 SameValue
        CFI V0 SameValue
        CFI V1 SameValue
        CFI V2 SameValue
        CFI V3 SameValue
        CFI V4 SameValue
        CFI V5 SameValue
        CFI V6 SameValue
        CFI V7 SameValue
        CFI V8 SameValue
        CFI V9 SameValue
        CFI V10 SameValue
        CFI V11 SameValue
        CFI V12 SameValue
        CFI V13 SameValue
        CFI V14 SameValue
        CFI V15 SameValue
        CFI PSPH Undefined
        CFI PSPL Undefined
        CFI XSPH Undefined
        CFI XSPL Undefined
        CFI ?RET Concat
        CFI ?BRET_EXT SameValue
        CFI ?RET_HIGH Frame(CFA_SP, 2)
        CFI ?RET_LOW Frame(CFA_SP, 1)
        CFI EndCommon cfiCommon1
        
__xdata_malloc      SYMBOL "__xdata_malloc"
__xdata_realloc     SYMBOL "__xdata_realloc"
__xdata_free        SYMBOL "__xdata_free"
sprintf             SYMBOL "sprintf"
strlen              SYMBOL "strlen"
memcpy              SYMBOL "memcpy"
memset              SYMBOL "memset"
strtod              SYMBOL "strtod"
strcpy              SYMBOL "strcpy"
sscanf              SYMBOL "sscanf"
strncmp             SYMBOL "strncmp"
strcmp              SYMBOL "strcmp"
??__xdata_free?relay SYMBOL "?relay", __xdata_free
??__xdata_malloc?relay SYMBOL "?relay", __xdata_malloc
??__xdata_realloc?relay SYMBOL "?relay", __xdata_realloc
??memcpy?relay      SYMBOL "?relay", memcpy
??memset?relay      SYMBOL "?relay", memset
??sprintf?relay     SYMBOL "?relay", sprintf
??sscanf?relay      SYMBOL "?relay", sscanf
??strcmp?relay      SYMBOL "?relay", strcmp
??strcpy?relay      SYMBOL "?relay", strcpy
??strlen?relay      SYMBOL "?relay", strlen
??strncmp?relay     SYMBOL "?relay", strncmp
??strtod?relay      SYMBOL "?relay", strtod
cJSON_AddArrayToObject SYMBOL "cJSON_AddArrayToObject"
??cJSON_AddArrayToObject?relay SYMBOL "?relay", cJSON_AddArrayToObject
cJSON_AddBoolToObject SYMBOL "cJSON_AddBoolToObject"
??cJSON_AddBoolToObject?relay SYMBOL "?relay", cJSON_AddBoolToObject
cJSON_AddFalseToObject SYMBOL "cJSON_AddFalseToObject"
??cJSON_AddFalseToObject?relay SYMBOL "?relay", cJSON_AddFalseToObject
cJSON_AddItemReferenceToArray SYMBOL "cJSON_AddItemReferenceToArray"
??cJSON_AddItemReferenceToArray?relay SYMBOL "?relay", cJSON_AddItemReferenceToArray
cJSON_AddItemReferenceToObject SYMBOL "cJSON_AddItemReferenceToObject"
??cJSON_AddItemReferenceToObject?relay SYMBOL "?relay", cJSON_AddItemReferenceToObject
cJSON_AddItemToArray SYMBOL "cJSON_AddItemToArray"
??cJSON_AddItemToArray?relay SYMBOL "?relay", cJSON_AddItemToArray
cJSON_AddItemToObject SYMBOL "cJSON_AddItemToObject"
??cJSON_AddItemToObject?relay SYMBOL "?relay", cJSON_AddItemToObject
cJSON_AddItemToObjectCS SYMBOL "cJSON_AddItemToObjectCS"
??cJSON_AddItemToObjectCS?relay SYMBOL "?relay", cJSON_AddItemToObjectCS
cJSON_AddNullToObject SYMBOL "cJSON_AddNullToObject"
??cJSON_AddNullToObject?relay SYMBOL "?relay", cJSON_AddNullToObject
cJSON_AddNumberToObject SYMBOL "cJSON_AddNumberToObject"
??cJSON_AddNumberToObject?relay SYMBOL "?relay", cJSON_AddNumberToObject
cJSON_AddObjectToObject SYMBOL "cJSON_AddObjectToObject"
??cJSON_AddObjectToObject?relay SYMBOL "?relay", cJSON_AddObjectToObject
cJSON_AddRawToObject SYMBOL "cJSON_AddRawToObject"
??cJSON_AddRawToObject?relay SYMBOL "?relay", cJSON_AddRawToObject
cJSON_AddStringToObject SYMBOL "cJSON_AddStringToObject"
??cJSON_AddStringToObject?relay SYMBOL "?relay", cJSON_AddStringToObject
cJSON_AddTrueToObject SYMBOL "cJSON_AddTrueToObject"
??cJSON_AddTrueToObject?relay SYMBOL "?relay", cJSON_AddTrueToObject
cJSON_Compare       SYMBOL "cJSON_Compare"
??cJSON_Compare?relay SYMBOL "?relay", cJSON_Compare
cJSON_CreateArray   SYMBOL "cJSON_CreateArray"
??cJSON_CreateArray?relay SYMBOL "?relay", cJSON_CreateArray
cJSON_CreateArrayReference SYMBOL "cJSON_CreateArrayReference"
??cJSON_CreateArrayReference?relay SYMBOL "?relay", cJSON_CreateArrayReference
cJSON_CreateBool    SYMBOL "cJSON_CreateBool"
??cJSON_CreateBool?relay SYMBOL "?relay", cJSON_CreateBool
cJSON_CreateDoubleArray SYMBOL "cJSON_CreateDoubleArray"
??cJSON_CreateDoubleArray?relay SYMBOL "?relay", cJSON_CreateDoubleArray
cJSON_CreateFalse   SYMBOL "cJSON_CreateFalse"
??cJSON_CreateFalse?relay SYMBOL "?relay", cJSON_CreateFalse
cJSON_CreateFloatArray SYMBOL "cJSON_CreateFloatArray"
??cJSON_CreateFloatArray?relay SYMBOL "?relay", cJSON_CreateFloatArray
cJSON_CreateIntArray SYMBOL "cJSON_CreateIntArray"
??cJSON_CreateIntArray?relay SYMBOL "?relay", cJSON_CreateIntArray
cJSON_CreateNull    SYMBOL "cJSON_CreateNull"
??cJSON_CreateNull?relay SYMBOL "?relay", cJSON_CreateNull
cJSON_CreateNumber  SYMBOL "cJSON_CreateNumber"
??cJSON_CreateNumber?relay SYMBOL "?relay", cJSON_CreateNumber
cJSON_CreateObject  SYMBOL "cJSON_CreateObject"
??cJSON_CreateObject?relay SYMBOL "?relay", cJSON_CreateObject
cJSON_CreateObjectReference SYMBOL "cJSON_CreateObjectReference"
??cJSON_CreateObjectReference?relay SYMBOL "?relay", cJSON_CreateObjectReference
cJSON_CreateRaw     SYMBOL "cJSON_CreateRaw"
??cJSON_CreateRaw?relay SYMBOL "?relay", cJSON_CreateRaw
cJSON_CreateString  SYMBOL "cJSON_CreateString"
??cJSON_CreateString?relay SYMBOL "?relay", cJSON_CreateString
cJSON_CreateStringArray SYMBOL "cJSON_CreateStringArray"
??cJSON_CreateStringArray?relay SYMBOL "?relay", cJSON_CreateStringArray
cJSON_CreateStringReference SYMBOL "cJSON_CreateStringReference"
??cJSON_CreateStringReference?relay SYMBOL "?relay", cJSON_CreateStringReference
cJSON_CreateTrue    SYMBOL "cJSON_CreateTrue"
??cJSON_CreateTrue?relay SYMBOL "?relay", cJSON_CreateTrue
cJSON_Delete        SYMBOL "cJSON_Delete"
??cJSON_Delete?relay SYMBOL "?relay", cJSON_Delete
cJSON_DeleteItemFromArray SYMBOL "cJSON_DeleteItemFromArray"
??cJSON_DeleteItemFromArray?relay SYMBOL "?relay", cJSON_DeleteItemFromArray
cJSON_DeleteItemFromObject SYMBOL "cJSON_DeleteItemFromObject"
??cJSON_DeleteItemFromObject?relay SYMBOL "?relay", cJSON_DeleteItemFromObject
cJSON_DeleteItemFromObjectCaseSensitive SYMBOL "cJSON_DeleteItemFromObjectCaseSensitive"
??cJSON_DeleteItemFromObjectCaseSensitive?relay SYMBOL "?relay", cJSON_DeleteItemFromObjectCaseSensitive
cJSON_DetachItemFromArray SYMBOL "cJSON_DetachItemFromArray"
??cJSON_DetachItemFromArray?relay SYMBOL "?relay", cJSON_DetachItemFromArray
cJSON_DetachItemFromObject SYMBOL "cJSON_DetachItemFromObject"
??cJSON_DetachItemFromObject?relay SYMBOL "?relay", cJSON_DetachItemFromObject
cJSON_DetachItemFromObjectCaseSensitive SYMBOL "cJSON_DetachItemFromObjectCaseSensitive"
??cJSON_DetachItemFromObjectCaseSensitive?relay SYMBOL "?relay", cJSON_DetachItemFromObjectCaseSensitive
cJSON_DetachItemViaPointer SYMBOL "cJSON_DetachItemViaPointer"
??cJSON_DetachItemViaPointer?relay SYMBOL "?relay", cJSON_DetachItemViaPointer
cJSON_Duplicate     SYMBOL "cJSON_Duplicate"
??cJSON_Duplicate?relay SYMBOL "?relay", cJSON_Duplicate
cJSON_GetArrayItem  SYMBOL "cJSON_GetArrayItem"
??cJSON_GetArrayItem?relay SYMBOL "?relay", cJSON_GetArrayItem
cJSON_GetArraySize  SYMBOL "cJSON_GetArraySize"
??cJSON_GetArraySize?relay SYMBOL "?relay", cJSON_GetArraySize
cJSON_GetErrorPtr   SYMBOL "cJSON_GetErrorPtr"
??cJSON_GetErrorPtr?relay SYMBOL "?relay", cJSON_GetErrorPtr
cJSON_GetNumberValue SYMBOL "cJSON_GetNumberValue"
??cJSON_GetNumberValue?relay SYMBOL "?relay", cJSON_GetNumberValue
cJSON_GetObjectItem SYMBOL "cJSON_GetObjectItem"
??cJSON_GetObjectItem?relay SYMBOL "?relay", cJSON_GetObjectItem
cJSON_GetObjectItemCaseSensitive SYMBOL "cJSON_GetObjectItemCaseSensitive"
??cJSON_GetObjectItemCaseSensitive?relay SYMBOL "?relay", cJSON_GetObjectItemCaseSensitive
cJSON_GetStringValue SYMBOL "cJSON_GetStringValue"
??cJSON_GetStringValue?relay SYMBOL "?relay", cJSON_GetStringValue
cJSON_HasObjectItem SYMBOL "cJSON_HasObjectItem"
??cJSON_HasObjectItem?relay SYMBOL "?relay", cJSON_HasObjectItem
cJSON_InitHooks     SYMBOL "cJSON_InitHooks"
??cJSON_InitHooks?relay SYMBOL "?relay", cJSON_InitHooks
cJSON_InsertItemInArray SYMBOL "cJSON_InsertItemInArray"
??cJSON_InsertItemInArray?relay SYMBOL "?relay", cJSON_InsertItemInArray
cJSON_IsArray       SYMBOL "cJSON_IsArray"
??cJSON_IsArray?relay SYMBOL "?relay", cJSON_IsArray
cJSON_IsBool        SYMBOL "cJSON_IsBool"
??cJSON_IsBool?relay SYMBOL "?relay", cJSON_IsBool
cJSON_IsFalse       SYMBOL "cJSON_IsFalse"
??cJSON_IsFalse?relay SYMBOL "?relay", cJSON_IsFalse
cJSON_IsInvalid     SYMBOL "cJSON_IsInvalid"
??cJSON_IsInvalid?relay SYMBOL "?relay", cJSON_IsInvalid
cJSON_IsNull        SYMBOL "cJSON_IsNull"
??cJSON_IsNull?relay SYMBOL "?relay", cJSON_IsNull
cJSON_IsNumber      SYMBOL "cJSON_IsNumber"
??cJSON_IsNumber?relay SYMBOL "?relay", cJSON_IsNumber
cJSON_IsObject      SYMBOL "cJSON_IsObject"
??cJSON_IsObject?relay SYMBOL "?relay", cJSON_IsObject
cJSON_IsRaw         SYMBOL "cJSON_IsRaw"
??cJSON_IsRaw?relay SYMBOL "?relay", cJSON_IsRaw
cJSON_IsString      SYMBOL "cJSON_IsString"
??cJSON_IsString?relay SYMBOL "?relay", cJSON_IsString
cJSON_IsTrue        SYMBOL "cJSON_IsTrue"
??cJSON_IsTrue?relay SYMBOL "?relay", cJSON_IsTrue
cJSON_Minify        SYMBOL "cJSON_Minify"
??cJSON_Minify?relay SYMBOL "?relay", cJSON_Minify
cJSON_Parse         SYMBOL "cJSON_Parse"
??cJSON_Parse?relay SYMBOL "?relay", cJSON_Parse
cJSON_ParseWithLength SYMBOL "cJSON_ParseWithLength"
??cJSON_ParseWithLength?relay SYMBOL "?relay", cJSON_ParseWithLength
cJSON_ParseWithLengthOpts SYMBOL "cJSON_ParseWithLengthOpts"
??cJSON_ParseWithLengthOpts?relay SYMBOL "?relay", cJSON_ParseWithLengthOpts
cJSON_ParseWithOpts SYMBOL "cJSON_ParseWithOpts"
??cJSON_ParseWithOpts?relay SYMBOL "?relay", cJSON_ParseWithOpts
cJSON_Print         SYMBOL "cJSON_Print"
??cJSON_Print?relay SYMBOL "?relay", cJSON_Print
cJSON_PrintBuffered SYMBOL "cJSON_PrintBuffered"
??cJSON_PrintBuffered?relay SYMBOL "?relay", cJSON_PrintBuffered
cJSON_PrintPreallocated SYMBOL "cJSON_PrintPreallocated"
??cJSON_PrintPreallocated?relay SYMBOL "?relay", cJSON_PrintPreallocated
cJSON_PrintUnformatted SYMBOL "cJSON_PrintUnformatted"
??cJSON_PrintUnformatted?relay SYMBOL "?relay", cJSON_PrintUnformatted
cJSON_ReplaceItemInArray SYMBOL "cJSON_ReplaceItemInArray"
??cJSON_ReplaceItemInArray?relay SYMBOL "?relay", cJSON_ReplaceItemInArray
cJSON_ReplaceItemInObject SYMBOL "cJSON_ReplaceItemInObject"
??cJSON_ReplaceItemInObject?relay SYMBOL "?relay", cJSON_ReplaceItemInObject
cJSON_ReplaceItemInObjectCaseSensitive SYMBOL "cJSON_ReplaceItemInObjectCaseSensitive"
??cJSON_ReplaceItemInObjectCaseSensitive?relay SYMBOL "?relay", cJSON_ReplaceItemInObjectCaseSensitive
cJSON_ReplaceItemViaPointer SYMBOL "cJSON_ReplaceItemViaPointer"
??cJSON_ReplaceItemViaPointer?relay SYMBOL "?relay", cJSON_ReplaceItemViaPointer
cJSON_SetNumberHelper SYMBOL "cJSON_SetNumberHelper"
??cJSON_SetNumberHelper?relay SYMBOL "?relay", cJSON_SetNumberHelper
cJSON_SetValuestring SYMBOL "cJSON_SetValuestring"
??cJSON_SetValuestring?relay SYMBOL "?relay", cJSON_SetValuestring
cJSON_Version       SYMBOL "cJSON_Version"
??cJSON_Version?relay SYMBOL "?relay", cJSON_Version
cJSON_free          SYMBOL "cJSON_free"
??cJSON_free?relay  SYMBOL "?relay", cJSON_free
cJSON_malloc        SYMBOL "cJSON_malloc"
??cJSON_malloc?relay SYMBOL "?relay", cJSON_malloc
free                SYMBOL "free"
??free?relay        SYMBOL "?relay", free
malloc              SYMBOL "malloc"
??malloc?relay      SYMBOL "?relay", malloc
realloc             SYMBOL "realloc"
??realloc?relay     SYMBOL "?relay", realloc

        EXTERN __xdata_malloc
        FUNCTION __xdata_malloc,0202H
        ARGFRAME ISTACK, 2, STACK
        ARGFRAME PSTACK, 0, STACK
        ARGFRAME XSTACK, 0, STACK
        ARGFRAME IOVERLAY, 0, STATIC
        ARGFRAME DOVERLAY, 0, STATIC
        EXTERN __xdata_realloc
        FUNCTION __xdata_realloc,0202H
        ARGFRAME ISTACK, 2, STACK
        ARGFRAME PSTACK, 0, STACK
        ARGFRAME XSTACK, 0, STACK
        ARGFRAME IOVERLAY, 0, STATIC
        ARGFRAME DOVERLAY, 0, STATIC
        EXTERN __xdata_free
        FUNCTION __xdata_free,0202H
        ARGFRAME ISTACK, 2, STACK
        ARGFRAME PSTACK, 0, STACK
        ARGFRAME XSTACK, 0, STACK
        ARGFRAME IOVERLAY, 0, STATIC
        ARGFRAME DOVERLAY, 0, STATIC
        EXTERN sprintf
        FUNCTION sprintf,0202H
        ARGFRAME ISTACK, 0, STACK
        ARGFRAME PSTACK, 0, STACK
        ARGFRAME XSTACK, 50, STACK
        ARGFRAME IOVERLAY, 0, STATIC
        ARGFRAME DOVERLAY, 0, STATIC
        EXTERN strlen
        FUNCTION strlen,010202H
        ARGFRAME ISTACK, 0, STACK
        ARGFRAME PSTACK, 0, STACK
        ARGFRAME XSTACK, 14, STACK
        ARGFRAME IOVERLAY, 0, STATIC
        ARGFRAME DOVERLAY, 0, STATIC
        EXTERN memcpy
        FUNCTION memcpy,010202H
        ARGFRAME ISTACK, 0, STACK
        ARGFRAME PSTACK, 0, STACK
        ARGFRAME XSTACK, 36, STACK
        ARGFRAME IOVERLAY, 0, STATIC
        ARGFRAME DOVERLAY, 0, STATIC
        EXTERN memset
        FUNCTION memset,010202H
        ARGFRAME ISTACK, 0, STACK
        ARGFRAME PSTACK, 0, STACK
        ARGFRAME XSTACK, 36, STACK
        ARGFRAME IOVERLAY, 0, STATIC
        ARGFRAME DOVERLAY, 0, STATIC
        EXTERN strtod
        FUNCTION strtod,010202H
        ARGFRAME ISTACK, 0, STACK
        ARGFRAME PSTACK, 0, STACK
        ARGFRAME XSTACK, 86, STACK
        ARGFRAME IOVERLAY, 0, STATIC
        ARGFRAME DOVERLAY, 0, STATIC
        EXTERN strcpy
        FUNCTION strcpy,010202H
        ARGFRAME ISTACK, 0, STACK
        ARGFRAME PSTACK, 0, STACK
        ARGFRAME XSTACK, 18, STACK
        ARGFRAME IOVERLAY, 0, STATIC
        ARGFRAME DOVERLAY, 0, STATIC
        EXTERN sscanf
        FUNCTION sscanf,0202H
        ARGFRAME ISTACK, 0, STACK
        ARGFRAME PSTACK, 0, STACK
        ARGFRAME XSTACK, 48, STACK
        ARGFRAME IOVERLAY, 0, STATIC
        ARGFRAME DOVERLAY, 0, STATIC
        EXTERN strncmp
        FUNCTION strncmp,010202H
        ARGFRAME ISTACK, 0, STACK
        ARGFRAME PSTACK, 0, STACK
        ARGFRAME XSTACK, 32, STACK
        ARGFRAME IOVERLAY, 0, STATIC
        ARGFRAME DOVERLAY, 0, STATIC
        EXTERN strcmp
        FUNCTION strcmp,010202H
        ARGFRAME ISTACK, 0, STACK
        ARGFRAME PSTACK, 0, STACK
        ARGFRAME XSTACK, 18, STACK
        ARGFRAME IOVERLAY, 0, STATIC
        ARGFRAME DOVERLAY, 0, STATIC
        EXTERN ??__xdata_free?relay
        FUNCTION ??__xdata_free?relay,00H
        EXTERN ??__xdata_malloc?relay
        FUNCTION ??__xdata_malloc?relay,00H
        EXTERN ??__xdata_realloc?relay
        FUNCTION ??__xdata_realloc?relay,00H
        EXTERN ??memcpy?relay
        FUNCTION ??memcpy?relay,00H
        EXTERN ??memset?relay
        FUNCTION ??memset?relay,00H
        EXTERN ??sprintf?relay
        FUNCTION ??sprintf?relay,00H
        EXTERN ??sscanf?relay
        FUNCTION ??sscanf?relay,00H
        EXTERN ??strcmp?relay
        FUNCTION ??strcmp?relay,00H
        EXTERN ??strcpy?relay
        FUNCTION ??strcpy?relay,00H
        EXTERN ??strlen?relay
        FUNCTION ??strlen?relay,00H
        EXTERN ??strncmp?relay
        FUNCTION ??strncmp?relay,00H
        EXTERN ??strtod?relay
        FUNCTION ??strtod?relay,00H
        EXTERN _Small_Ctype

// D:\developer_tool_install\IAR\ZStack-CC2530-2.5.1a\Projects\zstack\Samples\SMGW\Source\cJSON.c
//    1 /*
//    2   Copyright (c) 2009-2017 Dave Gamble and cJSON contributors
//    3 
//    4   Permission is hereby granted, free of charge, to any person obtaining a copy
//    5   of this software and associated documentation files (the "Software"), to deal
//    6   in the Software without restriction, including without limitation the rights
//    7   to use, copy, modify, merge, publish, distribute, sublicense, and/or sell
//    8   copies of the Software, and to permit persons to whom the Software is
//    9   furnished to do so, subject to the following conditions:
//   10 
//   11   The above copyright notice and this permission notice shall be included in
//   12   all copies or substantial portions of the Software.
//   13 
//   14   THE SOFTWARE IS PROVIDED "AS IS", WITHOUT WARRANTY OF ANY KIND, EXPRESS OR
//   15   IMPLIED, INCLUDING BUT NOT LIMITED TO THE WARRANTIES OF MERCHANTABILITY,
//   16   FITNESS FOR A PARTICULAR PURPOSE AND NONINFRINGEMENT. IN NO EVENT SHALL THE
//   17   AUTHORS OR COPYRIGHT HOLDERS BE LIABLE FOR ANY CLAIM, DAMAGES OR OTHER
//   18   LIABILITY, WHETHER IN AN ACTION OF CONTRACT, TORT OR OTHERWISE, ARISING FROM,
//   19   OUT OF OR IN CONNECTION WITH THE SOFTWARE OR THE USE OR OTHER DEALINGS IN
//   20   THE SOFTWARE.
//   21 */
//   22 
//   23 /* cJSON */
//   24 /* JSON parser in C. */
//   25 
//   26 /* disable warnings about old C89 functions in MSVC */
//   27 #if !defined(_CRT_SECURE_NO_DEPRECATE) && defined(_MSC_VER)
//   28 #define _CRT_SECURE_NO_DEPRECATE
//   29 #endif
//   30 
//   31 #ifdef __GNUC__
//   32 #pragma GCC visibility push(default)
//   33 #endif
//   34 #if defined(_MSC_VER)
//   35 #pragma warning (push)
//   36 /* disable warning about single line comments in system headers */
//   37 #pragma warning (disable : 4001)
//   38 #endif
//   39 
//   40 #include <string.h>
//   41 #include <stdio.h>
//   42 #include <math.h>
//   43 #include <stdlib.h>

        RSEG BANKED_CODE:CODE:NOROOT(0)
// __banked_func __xdata_reentrant void *malloc(size_t)
malloc:
        CFI Block cfiBlock0 Using cfiCommon0
        CFI Function malloc
        CODE
        FUNCALL malloc, __xdata_malloc
        LOCFRAME ISTACK, 2, STACK
        LOCFRAME PSTACK, 0, STACK
        LOCFRAME XSTACK, 0, STACK
        LOCFRAME IOVERLAY, 0, STATIC
        LOCFRAME DOVERLAY, 0, STATIC
        ARGFRAME ISTACK, 2, STACK
        ARGFRAME PSTACK, 0, STACK
        ARGFRAME XSTACK, 0, STACK
        ARGFRAME IOVERLAY, 0, STATIC
        ARGFRAME DOVERLAY, 0, STATIC
        PUSH    DPL
        CFI DPL0 Frame(CFA_SP, 4)
        CFI CFA_SP SP+-4
        PUSH    DPH
        CFI DPH0 Frame(CFA_SP, 5)
        CFI CFA_SP SP+-5
        ; Saved register size: 2
        ; Auto size: 0
        ; Setup parameters for call to function __xdata_malloc
        LCALL   ??__xdata_malloc?relay
        POP     DPH
        CFI DPH0 SameValue
        CFI CFA_SP SP+-4
        POP     DPL
        CFI DPL0 SameValue
        CFI CFA_SP SP+-3
        LJMP    ?BRET
        CFI EndBlock cfiBlock0

        RSEG BANKED_CODE:CODE:NOROOT(0)
// __banked_func __xdata_reentrant void *realloc(void *, size_t)
realloc:
        CFI Block cfiBlock1 Using cfiCommon0
        CFI Function realloc
        CODE
        FUNCALL realloc, __xdata_realloc
        LOCFRAME ISTACK, 2, STACK
        LOCFRAME PSTACK, 0, STACK
        LOCFRAME XSTACK, 0, STACK
        LOCFRAME IOVERLAY, 0, STATIC
        LOCFRAME DOVERLAY, 0, STATIC
        ARGFRAME ISTACK, 2, STACK
        ARGFRAME PSTACK, 0, STACK
        ARGFRAME XSTACK, 0, STACK
        ARGFRAME IOVERLAY, 0, STATIC
        ARGFRAME DOVERLAY, 0, STATIC
        PUSH    DPL
        CFI DPL0 Frame(CFA_SP, 4)
        CFI CFA_SP SP+-4
        PUSH    DPH
        CFI DPH0 Frame(CFA_SP, 5)
        CFI CFA_SP SP+-5
        ; Saved register size: 2
        ; Auto size: 0
        ; Setup parameters for call to function __xdata_realloc
        LCALL   ??__xdata_realloc?relay
        POP     DPH
        CFI DPH0 SameValue
        CFI CFA_SP SP+-4
        POP     DPL
        CFI DPL0 SameValue
        CFI CFA_SP SP+-3
        LJMP    ?BRET
        CFI EndBlock cfiBlock1

        RSEG BANKED_CODE:CODE:NOROOT(0)
// __banked_func __xdata_reentrant void free(void *)
free:
        CFI Block cfiBlock2 Using cfiCommon0
        CFI Function free
        CODE
        FUNCALL free, __xdata_free
        LOCFRAME ISTACK, 2, STACK
        LOCFRAME PSTACK, 0, STACK
        LOCFRAME XSTACK, 0, STACK
        LOCFRAME IOVERLAY, 0, STATIC
        LOCFRAME DOVERLAY, 0, STATIC
        ARGFRAME ISTACK, 2, STACK
        ARGFRAME PSTACK, 0, STACK
        ARGFRAME XSTACK, 0, STACK
        ARGFRAME IOVERLAY, 0, STATIC
        ARGFRAME DOVERLAY, 0, STATIC
        PUSH    DPL
        CFI DPL0 Frame(CFA_SP, 4)
        CFI CFA_SP SP+-4
        PUSH    DPH
        CFI DPH0 Frame(CFA_SP, 5)
        CFI CFA_SP SP+-5
        ; Saved register size: 2
        ; Auto size: 0
        ; Setup parameters for call to function __xdata_free
        LCALL   ??__xdata_free?relay
        POP     DPH
        CFI DPH0 SameValue
        CFI CFA_SP SP+-4
        POP     DPL
        CFI DPL0 SameValue
        CFI CFA_SP SP+-3
        LJMP    ?BRET
        CFI EndBlock cfiBlock2
//   44 #include <limits.h>
//   45 #include <ctype.h>
//   46 #include <float.h>
//   47 
//   48 #ifdef ENABLE_LOCALES
//   49 #include <locale.h>
//   50 #endif
//   51 
//   52 #if defined(_MSC_VER)
//   53 #pragma warning (pop)
//   54 #endif
//   55 #ifdef __GNUC__
//   56 #pragma GCC visibility pop
//   57 #endif
//   58 
//   59 #include "cJSON.h"
//   60 
//   61 /* define our own boolean type */
//   62 #ifdef true
//   63 #undef true
//   64 #endif
//   65 #define true ((cJSON_bool)1)
//   66 
//   67 #ifdef false
//   68 #undef false
//   69 #endif
//   70 #define false ((cJSON_bool)0)
//   71 
//   72 /* define isnan and isinf for ANSI C, if in C99 or above, isnan and isinf has been defined in math.h */
//   73 #ifndef isinf
//   74 #define isinf(d) (isnan((d - d)) && !isnan(d))
//   75 #endif
//   76 #ifndef isnan
//   77 #define isnan(d) (d != d)
//   78 #endif
//   79 
//   80 #ifndef NAN
//   81 #ifdef _WIN32
//   82 #define NAN sqrt(-1.0)
//   83 #else
//   84 #define NAN 0.0/0.0
//   85 #endif
//   86 #endif
//   87 
//   88 typedef struct {
//   89     const unsigned char *json;
//   90     size_t position;
//   91 } error;

        RSEG XDATA_Z:XDATA:NOROOT(0)
        DATA32
//   92 static error global_error = { NULL, 0 };
global_error:
        DS 4
        REQUIRE __INIT_XDATA_Z
//   93 

        RSEG BANKED_CODE:CODE:NOROOT(0)
//   94 CJSON_PUBLIC(const char *) cJSON_GetErrorPtr(void)
cJSON_GetErrorPtr:
        CFI Block cfiBlock3 Using cfiCommon0
        CFI Function cJSON_GetErrorPtr
        CODE
//   95 {
        PUSH    DPL
        CFI DPL0 Frame(CFA_SP, 4)
        CFI CFA_SP SP+-4
        PUSH    DPH
        CFI DPH0 Frame(CFA_SP, 5)
        CFI CFA_SP SP+-5
        ; Saved register size: 2
        ; Auto size: 0
//   96     return (const char*) (global_error.json + global_error.position);
        MOV     DPTR,#global_error + 2
        LCALL   ??Subroutine226_0 & 0xFFFF
??CrossCallReturnLabel_608:
        MOV     DPTR,#global_error
        LCALL   ?Subroutine147 & 0xFFFF
??CrossCallReturnLabel_319:
        MOV     R3,A
        LJMP    ??Subroutine204_0 & 0xFFFF
        CFI EndBlock cfiBlock3
//   97 }
//   98 

        RSEG BANKED_CODE:CODE:NOROOT(0)
//   99 CJSON_PUBLIC(char *) cJSON_GetStringValue(const cJSON * const item) 
cJSON_GetStringValue:
        CFI Block cfiBlock4 Using cfiCommon0
        CFI Function cJSON_GetStringValue
        CODE
//  100 {
        FUNCALL cJSON_GetStringValue, cJSON_IsString
        LOCFRAME ISTACK, 0, STACK
        LOCFRAME PSTACK, 0, STACK
        LOCFRAME XSTACK, 10, STACK
        LOCFRAME IOVERLAY, 0, STATIC
        LOCFRAME DOVERLAY, 0, STATIC
        ARGFRAME ISTACK, 0, STACK
        ARGFRAME PSTACK, 0, STACK
        ARGFRAME XSTACK, 10, STACK
        ARGFRAME IOVERLAY, 0, STATIC
        ARGFRAME DOVERLAY, 0, STATIC
        MOV     A,#-0xa
        LCALL   ?BANKED_ENTER_XDATA
        CFI DPH0 load(1, XDATA, add(CFA_XSP16, literal(-1)))
        CFI DPL0 load(1, XDATA, add(CFA_XSP16, literal(-2)))
        CFI ?BRET_EXT load(1, XDATA, add(CFA_XSP16, literal(-3)))
        CFI ?RET_HIGH load(1, XDATA, add(CFA_XSP16, literal(-4)))
        CFI ?RET_LOW load(1, XDATA, add(CFA_XSP16, literal(-5)))
        CFI R7 load(1, XDATA, add(CFA_XSP16, literal(-6)))
        CFI V1 load(1, XDATA, add(CFA_XSP16, literal(-7)))
        CFI V0 load(1, XDATA, add(CFA_XSP16, literal(-8)))
        CFI VB load(1, XDATA, add(CFA_XSP16, literal(-9)))
        CFI R6 load(1, XDATA, add(CFA_XSP16, literal(-10)))
        CFI CFA_SP SP+0
        CFI CFA_XSP16 add(XSP16, 10)
        ; Saved register size: 10
        ; Auto size: 0
        MOV     A,R2
        MOV     R6,A
        MOV     A,R3
        MOV     R7,A
//  101     if (!cJSON_IsString(item)) 
        ; Setup parameters for call to function cJSON_IsString
        LCALL   ??cJSON_IsString?relay
        MOV     ?V0 + 1,R3
        MOV     A,R2
        ORL     A,?V0 + 1
        JNZ     ??cJSON_GetStringValue_0
//  102     {
//  103         return NULL;
        MOV     R2,#0x0
        MOV     R3,#0x0
        SJMP    ??CrossCallReturnLabel_390
//  104     }
//  105 
//  106     return item->valuestring;
??cJSON_GetStringValue_0:
        MOV     DPL,R6
        MOV     DPH,R7
        LCALL   ?Subroutine67 & 0xFFFF
??CrossCallReturnLabel_390:
        LJMP    ??Subroutine160_0 & 0xFFFF
        CFI EndBlock cfiBlock4
//  107 }
//  108 

        RSEG BANKED_CODE:CODE:NOROOT(0)
//  109 CJSON_PUBLIC(double) cJSON_GetNumberValue(const cJSON * const item) 
cJSON_GetNumberValue:
        CFI Block cfiBlock5 Using cfiCommon0
        CFI Function cJSON_GetNumberValue
        CODE
//  110 {
        FUNCALL cJSON_GetNumberValue, cJSON_IsNumber
        LOCFRAME ISTACK, 0, STACK
        LOCFRAME PSTACK, 0, STACK
        LOCFRAME XSTACK, 16, STACK
        LOCFRAME IOVERLAY, 0, STATIC
        LOCFRAME DOVERLAY, 0, STATIC
        ARGFRAME ISTACK, 0, STACK
        ARGFRAME PSTACK, 0, STACK
        ARGFRAME XSTACK, 16, STACK
        ARGFRAME IOVERLAY, 0, STATIC
        ARGFRAME DOVERLAY, 0, STATIC
        MOV     A,#-0x10
        LCALL   ?BANKED_ENTER_XDATA
        CFI DPH0 load(1, XDATA, add(CFA_XSP16, literal(-1)))
        CFI DPL0 load(1, XDATA, add(CFA_XSP16, literal(-2)))
        CFI ?BRET_EXT load(1, XDATA, add(CFA_XSP16, literal(-3)))
        CFI ?RET_HIGH load(1, XDATA, add(CFA_XSP16, literal(-4)))
        CFI ?RET_LOW load(1, XDATA, add(CFA_XSP16, literal(-5)))
        CFI R7 load(1, XDATA, add(CFA_XSP16, literal(-6)))
        CFI V7 load(1, XDATA, add(CFA_XSP16, literal(-7)))
        CFI V6 load(1, XDATA, add(CFA_XSP16, literal(-8)))
        CFI V5 load(1, XDATA, add(CFA_XSP16, literal(-9)))
        CFI V4 load(1, XDATA, add(CFA_XSP16, literal(-10)))
        CFI V3 load(1, XDATA, add(CFA_XSP16, literal(-11)))
        CFI V2 load(1, XDATA, add(CFA_XSP16, literal(-12)))
        CFI V1 load(1, XDATA, add(CFA_XSP16, literal(-13)))
        CFI V0 load(1, XDATA, add(CFA_XSP16, literal(-14)))
        CFI VB load(1, XDATA, add(CFA_XSP16, literal(-15)))
        CFI R6 load(1, XDATA, add(CFA_XSP16, literal(-16)))
        CFI CFA_SP SP+0
        CFI CFA_XSP16 add(XSP16, 16)
        ; Saved register size: 16
        ; Auto size: 0
        MOV     A,R2
        MOV     R6,A
        MOV     A,R3
        MOV     R7,A
//  111     if (!cJSON_IsNumber(item)) 
        ; Setup parameters for call to function cJSON_IsNumber
        LCALL   ??cJSON_IsNumber?relay
        MOV     ?V0 + 1,R3
        MOV     A,R2
        ORL     A,?V0 + 1
        JNZ     ??cJSON_GetNumberValue_0
//  112     {
//  113         return (double) NAN;
        MOV     ?V0 + 0,#0x0
        MOV     ?V0 + 1,#0x0
        MOV     ?V0 + 2,#0x0
        MOV     ?V0 + 3,#0x0
        MOV     DPTR,#__Constant_0
        MOV     R0,#?V0 + 4
        LCALL   ?L_MOV_X
        MOV     R0,#?V0 + 0
        MOV     R1,#?V0 + 4
        LCALL   ?FLT_DIV
        MOV     R2,?V0 + 0
        MOV     R3,?V0 + 1
        MOV     R4,?V0 + 2
        MOV     R5,?V0 + 3
        SJMP    ??cJSON_GetNumberValue_1
//  114     }
//  115 
//  116     return item->valuedouble;
??cJSON_GetNumberValue_0:
        LCALL   ?Subroutine81 & 0xFFFF
??CrossCallReturnLabel_135:
        LCALL   ?XLOAD_R2345
??cJSON_GetNumberValue_1:
        LJMP    ??Subroutine151_0 & 0xFFFF
        CFI EndBlock cfiBlock5
//  117 }
//  118 
//  119 /* This is a safeguard to prevent copy-pasters from using incompatible C and header files */
//  120 #if (CJSON_VERSION_MAJOR != 1) || (CJSON_VERSION_MINOR != 7) || (CJSON_VERSION_PATCH != 15)
//  121     #error cJSON.h and cJSON.c have different versions. Make sure that both have the same.
//  122 #endif
//  123 

        RSEG BANKED_CODE:CODE:NOROOT(0)
//  124 CJSON_PUBLIC(const char*) cJSON_Version(void)
cJSON_Version:
        CFI Block cfiBlock6 Using cfiCommon0
        CFI Function cJSON_Version
        CODE
//  125 {
        FUNCALL cJSON_Version, sprintf
        LOCFRAME ISTACK, 0, STACK
        LOCFRAME PSTACK, 0, STACK
        LOCFRAME XSTACK, 16, STACK
        LOCFRAME IOVERLAY, 0, STATIC
        LOCFRAME DOVERLAY, 0, STATIC
        ARGFRAME ISTACK, 0, STACK
        ARGFRAME PSTACK, 0, STACK
        ARGFRAME XSTACK, 16, STACK
        ARGFRAME IOVERLAY, 0, STATIC
        ARGFRAME DOVERLAY, 0, STATIC
        MOV     A,#-0xa
        LCALL   ?BANKED_ENTER_XDATA
        CFI DPH0 load(1, XDATA, add(CFA_XSP16, literal(-1)))
        CFI DPL0 load(1, XDATA, add(CFA_XSP16, literal(-2)))
        CFI ?BRET_EXT load(1, XDATA, add(CFA_XSP16, literal(-3)))
        CFI ?RET_HIGH load(1, XDATA, add(CFA_XSP16, literal(-4)))
        CFI ?RET_LOW load(1, XDATA, add(CFA_XSP16, literal(-5)))
        CFI R7 load(1, XDATA, add(CFA_XSP16, literal(-6)))
        CFI V1 load(1, XDATA, add(CFA_XSP16, literal(-7)))
        CFI V0 load(1, XDATA, add(CFA_XSP16, literal(-8)))
        CFI VB load(1, XDATA, add(CFA_XSP16, literal(-9)))
        CFI R6 load(1, XDATA, add(CFA_XSP16, literal(-10)))
        CFI CFA_SP SP+0
        CFI CFA_XSP16 add(XSP16, 10)
        ; Saved register size: 10
        ; Auto size: 0
//  126     static char version[15];
//  127     sprintf(version, "%i.%i.%i", CJSON_VERSION_MAJOR, CJSON_VERSION_MINOR, CJSON_VERSION_PATCH);
        ; Setup parameters for call to function sprintf
        MOV     ?V0 + 0,#0xf
        MOV     ?V0 + 1,#0x0
        MOV     R0,#?V0 + 0
        LCALL   ?PUSH_XSTACK_I_TWO
        CFI CFA_XSP16 add(XSP16, 12)
        MOV     ?V0 + 0,#0x7
        MOV     R0,#?V0 + 0
        LCALL   ?PUSH_XSTACK_I_TWO
        CFI CFA_XSP16 add(XSP16, 14)
        MOV     ?V0 + 0,#0x1
        MOV     R0,#?V0 + 0
        LCALL   ?PUSH_XSTACK_I_TWO
        CFI CFA_XSP16 add(XSP16, 16)
        MOV     R4,#`?<Constant "%i.%i.%i">` & 0xff
        MOV     R5,#(`?<Constant "%i.%i.%i">` >> 8) & 0xff
        MOV     R2,#??version & 0xff
        MOV     R3,#(??version >> 8) & 0xff
        LCALL   ??sprintf?relay
        MOV     A,#0x6
        LCALL   ?DEALLOC_XSTACK8
        CFI CFA_XSP16 add(XSP16, 10)
//  128 
//  129     return version;
        MOV     R2,#??version & 0xff
        MOV     R3,#(??version >> 8) & 0xff
        LJMP    ??Subroutine160_0 & 0xFFFF
        CFI EndBlock cfiBlock6
//  130 }

        RSEG XDATA_Z:XDATA:NOROOT(0)
        DATA8
??version:
        DS 15
        REQUIRE __INIT_XDATA_Z
//  131 
//  132 /* Case insensitive string comparison, doesn't consider two NULL pointers equal though */

        RSEG BANKED_CODE:CODE:NOROOT(0)
//  133 static int case_insensitive_strcmp(const unsigned char *string1, const unsigned char *string2)
case_insensitive_strcmp:
        CFI Block cfiBlock7 Using cfiCommon0
        CFI Function case_insensitive_strcmp
        CODE
//  134 {
        MOV     A,#-0x9
        LCALL   ?BANKED_ENTER_XDATA
        CFI DPH0 load(1, XDATA, add(CFA_XSP16, literal(-1)))
        CFI DPL0 load(1, XDATA, add(CFA_XSP16, literal(-2)))
        CFI ?BRET_EXT load(1, XDATA, add(CFA_XSP16, literal(-3)))
        CFI ?RET_HIGH load(1, XDATA, add(CFA_XSP16, literal(-4)))
        CFI ?RET_LOW load(1, XDATA, add(CFA_XSP16, literal(-5)))
        CFI R7 load(1, XDATA, add(CFA_XSP16, literal(-6)))
        CFI V0 load(1, XDATA, add(CFA_XSP16, literal(-7)))
        CFI VB load(1, XDATA, add(CFA_XSP16, literal(-8)))
        CFI R6 load(1, XDATA, add(CFA_XSP16, literal(-9)))
        CFI CFA_SP SP+0
        CFI CFA_XSP16 add(XSP16, 9)
        ; Saved register size: 9
        ; Auto size: 0
//  135     if ((string1 == NULL) || (string2 == NULL))
        MOV     A,R2
        ORL     A,R3
        JZ      ??case_insensitive_strcmp_0
        MOV     A,R4
        ORL     A,R5
        JNZ     ??case_insensitive_strcmp_1
//  136     {
//  137         return 1;
??case_insensitive_strcmp_0:
        MOV     R2,#0x1
??case_insensitive_strcmp_2:
        MOV     R3,#0x0
        SJMP    ??case_insensitive_strcmp_3
//  138     }
//  139 
//  140     if (string1 == string2)
??case_insensitive_strcmp_1:
        MOV     A,R4
        XRL     A,R2
        JNZ     ??case_insensitive_strcmp_4
        MOV     A,R5
        XRL     A,R3
??case_insensitive_strcmp_4:
        JNZ     ??case_insensitive_strcmp_5
//  141     {
//  142         return 0;
??case_insensitive_strcmp_6:
        MOV     R2,#0x0
        SJMP    ??case_insensitive_strcmp_2
//  143     }
//  144 
//  145     for(; tolower(*string1) == tolower(*string2); (void)string1++, string2++)
//  146     {
//  147         if (*string1 == '\0')
??case_insensitive_strcmp_7:
        MOVX    A,@DPTR
        JZ      ??case_insensitive_strcmp_6
//  148         {
//  149             return 0;
//  150         }
//  151     }
        INC     DPTR
        MOV     R2,DPL
        MOV     R3,DPH
        MOV     DPL,R4
        MOV     DPH,R5
        INC     DPTR
        MOV     R4,DPL
        MOV     R5,DPH
??case_insensitive_strcmp_5:
        MOV     DPL,R2
        MOV     DPH,R3
        LCALL   ?Subroutine20 & 0xFFFF
??CrossCallReturnLabel_5:
        MOV     DPL,R2
        MOV     DPH,R3
        MOVX    A,@DPTR
        JNC     ??case_insensitive_strcmp_8
        ORL     A,#0x20
??case_insensitive_strcmp_8:
        MOV     R6,A
        MOV     DPL,R4
        MOV     DPH,R5
        LCALL   ?Subroutine20 & 0xFFFF
??CrossCallReturnLabel_6:
        JNC     ??case_insensitive_strcmp_9
        MOV     DPL,R4
        MOV     DPH,R5
        MOVX    A,@DPTR
        ORL     A,#0x20
        MOV     R0,A
??case_insensitive_strcmp_9:
        MOV     A,R0
        XRL     A,R6
        MOV     DPL,R2
        MOV     DPH,R3
        JZ      ??case_insensitive_strcmp_7
//  152 
//  153     return tolower(*string1) - tolower(*string2);
        LCALL   ?Subroutine20 & 0xFFFF
??CrossCallReturnLabel_7:
        JNC     ??case_insensitive_strcmp_10
        MOV     DPL,R2
        MOV     DPH,R3
        MOVX    A,@DPTR
        ORL     A,#0x20
        MOV     R0,A
??case_insensitive_strcmp_10:
        MOV     DPL,R4
        MOV     DPH,R5
        MOVX    A,@DPTR
        MOV     R2,A
        MOV     A,#(_Small_Ctype + 1) & 0xff
        ADD     A,R2
        MOV     DPL,A
        MOV     A,#((_Small_Ctype + 1) >> 8) & 0xff
        LCALL   ??Subroutine178_0 & 0xFFFF
??CrossCallReturnLabel_344:
        CLR     A
        MOVC    A,@A+DPTR
        MOV     C,0xE0 /* A   */.0
        JNC     ??case_insensitive_strcmp_11
        MOV     DPL,R4
        MOV     DPH,R5
        MOVX    A,@DPTR
        ORL     A,#0x20
        MOV     R2,A
??case_insensitive_strcmp_11:
        MOV     A,R0
        CLR     C
        SUBB    A,R2
        MOV     R2,A
        SUBB    A,0xE0 /* A   */
        MOV     R3,A
??case_insensitive_strcmp_3:
        LJMP    ??Subroutine186_0 & 0xFFFF
        CFI EndBlock cfiBlock7
//  154 }

        RSEG BANKED_CODE:CODE:NOROOT(0)
?Subroutine20:
        CFI Block cfiCond8 Using cfiCommon0
        CFI NoFunction
        CFI Conditional ??CrossCallReturnLabel_5
        CFI R6 load(1, XDATA, add(CFA_XSP16, literal(-9)))
        CFI VB load(1, XDATA, add(CFA_XSP16, literal(-8)))
        CFI V0 load(1, XDATA, add(CFA_XSP16, literal(-7)))
        CFI R7 load(1, XDATA, add(CFA_XSP16, literal(-6)))
        CFI ?RET_LOW load(1, XDATA, add(CFA_XSP16, literal(-5)))
        CFI ?RET_HIGH load(1, XDATA, add(CFA_XSP16, literal(-4)))
        CFI ?BRET_EXT load(1, XDATA, add(CFA_XSP16, literal(-3)))
        CFI DPL0 load(1, XDATA, add(CFA_XSP16, literal(-2)))
        CFI DPH0 load(1, XDATA, add(CFA_XSP16, literal(-1)))
        CFI CFA_SP SP+0
        CFI CFA_XSP16 add(XSP16, 9)
        CFI Block cfiCond9 Using cfiCommon0
        CFI (cfiCond9) NoFunction
        CFI (cfiCond9) Conditional ??CrossCallReturnLabel_6
        CFI (cfiCond9) R6 load(1, XDATA, add(CFA_XSP16, literal(-9)))
        CFI (cfiCond9) VB load(1, XDATA, add(CFA_XSP16, literal(-8)))
        CFI (cfiCond9) V0 load(1, XDATA, add(CFA_XSP16, literal(-7)))
        CFI (cfiCond9) R7 load(1, XDATA, add(CFA_XSP16, literal(-6)))
        CFI (cfiCond9) ?RET_LOW load(1, XDATA, add(CFA_XSP16, literal(-5)))
        CFI (cfiCond9) ?RET_HIGH load(1, XDATA, add(CFA_XSP16, literal(-4)))
        CFI (cfiCond9) ?BRET_EXT load(1, XDATA, add(CFA_XSP16, literal(-3)))
        CFI (cfiCond9) DPL0 load(1, XDATA, add(CFA_XSP16, literal(-2)))
        CFI (cfiCond9) DPH0 load(1, XDATA, add(CFA_XSP16, literal(-1)))
        CFI (cfiCond9) CFA_SP SP+0
        CFI (cfiCond9) CFA_XSP16 add(XSP16, 9)
        CFI Block cfiCond10 Using cfiCommon0
        CFI (cfiCond10) NoFunction
        CFI (cfiCond10) Conditional ??CrossCallReturnLabel_7
        CFI (cfiCond10) R6 load(1, XDATA, add(CFA_XSP16, literal(-9)))
        CFI (cfiCond10) VB load(1, XDATA, add(CFA_XSP16, literal(-8)))
        CFI (cfiCond10) V0 load(1, XDATA, add(CFA_XSP16, literal(-7)))
        CFI (cfiCond10) R7 load(1, XDATA, add(CFA_XSP16, literal(-6)))
        CFI (cfiCond10) ?RET_LOW load(1, XDATA, add(CFA_XSP16, literal(-5)))
        CFI (cfiCond10) ?RET_HIGH load(1, XDATA, add(CFA_XSP16, literal(-4)))
        CFI (cfiCond10) ?BRET_EXT load(1, XDATA, add(CFA_XSP16, literal(-3)))
        CFI (cfiCond10) DPL0 load(1, XDATA, add(CFA_XSP16, literal(-2)))
        CFI (cfiCond10) DPH0 load(1, XDATA, add(CFA_XSP16, literal(-1)))
        CFI (cfiCond10) CFA_SP SP+0
        CFI (cfiCond10) CFA_XSP16 add(XSP16, 9)
        CFI Block cfiPicker11 Using cfiCommon1
        CFI (cfiPicker11) NoFunction
        CFI (cfiPicker11) Picker
        MOVX    A,@DPTR
        MOV     R0,A
        MOV     A,#(_Small_Ctype + 1) & 0xff
        ADD     A,R0
        MOV     DPL,A
        MOV     A,#((_Small_Ctype + 1) >> 8) & 0xff
        LCALL   ??Subroutine176_0 & 0xFFFF
??CrossCallReturnLabel_644:
        CLR     A
        MOVC    A,@A+DPTR
        MOV     C,0xE0 /* A   */.0
        RET
        CFI EndBlock cfiCond8
        CFI EndBlock cfiCond9
        CFI EndBlock cfiCond10
        CFI EndBlock cfiPicker11
//  155 
//  156 typedef struct internal_hooks
//  157 {
//  158     void *(CJSON_CDECL *allocate)(size_t size);
//  159     void (CJSON_CDECL *deallocate)(void *pointer);
//  160     void *(CJSON_CDECL *reallocate)(void *pointer, size_t size);
//  161 } internal_hooks;
//  162 
//  163 #if defined(_MSC_VER)
//  164 /* work around MSVC error C2322: '...' address of dllimport '...' is not static */
//  165 static void * CJSON_CDECL internal_malloc(size_t size)
//  166 {
//  167     return malloc(size);
//  168 }
//  169 static void CJSON_CDECL internal_free(void *pointer)
//  170 {
//  171     free(pointer);
//  172 }
//  173 static void * CJSON_CDECL internal_realloc(void *pointer, size_t size)
//  174 {
//  175     return realloc(pointer, size);
//  176 }
//  177 #else
//  178 #define internal_malloc malloc
//  179 #define internal_free free
//  180 #define internal_realloc realloc
//  181 #endif
//  182 
//  183 /* strlen of character literals resolved at compile time */
//  184 #define static_strlen(string_literal) (sizeof(string_literal) - sizeof(""))
//  185 

        RSEG XDATA_I:XDATA:NOROOT(0)
//  186 static internal_hooks global_hooks = { internal_malloc, internal_free, internal_realloc };
global_hooks:
        DATA8
        DS 6
        REQUIRE `?<Initializer for global_hooks>`
        REQUIRE __INIT_XDATA_I
//  187 

        RSEG BANKED_CODE:CODE:NOROOT(0)
//  188 static unsigned char* cJSON_strdup(const unsigned char* string, const internal_hooks * const hooks)
cJSON_strdup:
        CFI Block cfiBlock12 Using cfiCommon0
        CFI Function cJSON_strdup
        CODE
//  189 {
        FUNCALL cJSON_strdup, strlen
        LOCFRAME ISTACK, 0, STACK
        LOCFRAME PSTACK, 0, STACK
        LOCFRAME XSTACK, 14, STACK
        LOCFRAME IOVERLAY, 0, STATIC
        LOCFRAME DOVERLAY, 0, STATIC
        ARGFRAME ISTACK, 0, STACK
        ARGFRAME PSTACK, 0, STACK
        ARGFRAME XSTACK, 14, STACK
        ARGFRAME IOVERLAY, 0, STATIC
        ARGFRAME DOVERLAY, 0, STATIC
        FUNCALL cJSON_strdup, memcpy
        LOCFRAME ISTACK, 0, STACK
        LOCFRAME PSTACK, 0, STACK
        LOCFRAME XSTACK, 16, STACK
        LOCFRAME IOVERLAY, 0, STATIC
        LOCFRAME DOVERLAY, 0, STATIC
        ARGFRAME ISTACK, 0, STACK
        ARGFRAME PSTACK, 0, STACK
        ARGFRAME XSTACK, 16, STACK
        ARGFRAME IOVERLAY, 0, STATIC
        ARGFRAME DOVERLAY, 0, STATIC
        MOV     A,#-0xe
        LCALL   ?BANKED_ENTER_XDATA
        CFI DPH0 load(1, XDATA, add(CFA_XSP16, literal(-1)))
        CFI DPL0 load(1, XDATA, add(CFA_XSP16, literal(-2)))
        CFI ?BRET_EXT load(1, XDATA, add(CFA_XSP16, literal(-3)))
        CFI ?RET_HIGH load(1, XDATA, add(CFA_XSP16, literal(-4)))
        CFI ?RET_LOW load(1, XDATA, add(CFA_XSP16, literal(-5)))
        CFI R7 load(1, XDATA, add(CFA_XSP16, literal(-6)))
        CFI V5 load(1, XDATA, add(CFA_XSP16, literal(-7)))
        CFI V4 load(1, XDATA, add(CFA_XSP16, literal(-8)))
        CFI V3 load(1, XDATA, add(CFA_XSP16, literal(-9)))
        CFI V2 load(1, XDATA, add(CFA_XSP16, literal(-10)))
        CFI V1 load(1, XDATA, add(CFA_XSP16, literal(-11)))
        CFI V0 load(1, XDATA, add(CFA_XSP16, literal(-12)))
        CFI VB load(1, XDATA, add(CFA_XSP16, literal(-13)))
        CFI R6 load(1, XDATA, add(CFA_XSP16, literal(-14)))
        CFI CFA_SP SP+0
        CFI CFA_XSP16 add(XSP16, 14)
        ; Saved register size: 14
        ; Auto size: 0
        MOV     A,R2
        MOV     R6,A
        MOV     A,R3
        MOV     R7,A
        MOV     ?V0 + 0,R4
        MOV     ?V0 + 1,R5
//  190     size_t length = 0;
//  191     unsigned char *copy = NULL;
//  192 
//  193     if (string == NULL)
        MOV     A,R6
        ORL     A,R7
        JNZ     ??cJSON_strdup_0
//  194     {
//  195         return NULL;
??cJSON_strdup_1:
        MOV     R2,#0x0
        MOV     R3,#0x0
        SJMP    ??cJSON_strdup_2
//  196     }
//  197 
//  198     length = strlen((const char*)string) + sizeof("");
??cJSON_strdup_0:
        ; Setup parameters for call to function strlen
        LCALL   ??strlen?relay
        LCALL   ?Subroutine90 & 0xFFFF
//  199     copy = (unsigned char*)hooks->allocate(length);
??CrossCallReturnLabel_145:
        ; Setup parameters for indirect call
        INC     R2
        MOV     R3,A
        MOV     DPL,?V0 + 0
        MOV     DPH,?V0 + 1
        LCALL   ??Subroutine162_0 & 0xFFFF
??CrossCallReturnLabel_249:
        LCALL   ?CALL_IND
        MOV     ?V0 + 0,R2
        MOV     ?V0 + 1,R3
//  200     if (copy == NULL)
        MOV     A,R2
        ORL     A,?V0 + 1
        JZ      ??cJSON_strdup_1
//  201     {
//  202         return NULL;
//  203     }
//  204     memcpy(copy, string, length);
        ; Setup parameters for call to function memcpy
        MOV     R0,#?V0 + 2
        LCALL   ?PUSH_XSTACK_I_TWO
        CFI CFA_XSP16 add(XSP16, 16)
        MOV     A,R6
        MOV     R4,A
        MOV     A,R7
        LCALL   ?Subroutine140 & 0xFFFF
??CrossCallReturnLabel_280:
        LCALL   ?DEALLOC_XSTACK8
        CFI CFA_XSP16 add(XSP16, 14)
//  205 
//  206     return copy;
        MOV     R2,?V0 + 0
        MOV     R3,?V0 + 1
??cJSON_strdup_2:
        LJMP    ??Subroutine189_0 & 0xFFFF
        CFI EndBlock cfiBlock12
//  207 }
//  208 

        RSEG BANKED_CODE:CODE:NOROOT(0)
//  209 CJSON_PUBLIC(void) cJSON_InitHooks(cJSON_Hooks* hooks)
cJSON_InitHooks:
        CFI Block cfiBlock13 Using cfiCommon0
        CFI Function cJSON_InitHooks
        CODE
//  210 {
        PUSH    DPL
        CFI DPL0 Frame(CFA_SP, 4)
        CFI CFA_SP SP+-4
        PUSH    DPH
        CFI DPH0 Frame(CFA_SP, 5)
        CFI CFA_SP SP+-5
        ; Saved register size: 2
        ; Auto size: 0
//  211     if (hooks == NULL)
        MOV     A,R2
        ORL     A,R3
        MOV     DPTR,#global_hooks
        JNZ     ??cJSON_InitHooks_0
//  212     {
//  213         /* Reset hooks */
//  214         global_hooks.allocate = malloc;
        MOV     A,#??malloc?relay & 0xff
        MOVX    @DPTR,A
        INC     DPTR
        MOV     A,#(??malloc?relay >> 8) & 0xff
        MOVX    @DPTR,A
//  215         global_hooks.deallocate = free;
        INC     DPTR
        MOV     A,#??free?relay & 0xff
        MOVX    @DPTR,A
        INC     DPTR
        MOV     A,#(??free?relay >> 8) & 0xff
        MOVX    @DPTR,A
//  216         global_hooks.reallocate = realloc;
        INC     DPTR
        SJMP    ??cJSON_InitHooks_1
//  217         return;
//  218     }
//  219 
//  220     global_hooks.allocate = malloc;
??cJSON_InitHooks_0:
        MOV     A,#??malloc?relay & 0xff
        MOVX    @DPTR,A
        INC     DPTR
        MOV     A,#(??malloc?relay >> 8) & 0xff
        LCALL   ?Subroutine102 & 0xFFFF
//  221     if (hooks->malloc_fn != NULL)
??CrossCallReturnLabel_159:
        LCALL   ??Subroutine200_0 & 0xFFFF
??CrossCallReturnLabel_442:
        JZ      ??CrossCallReturnLabel_414
//  222     {
//  223         global_hooks.allocate = hooks->malloc_fn;
        MOV     DPTR,#global_hooks
        LCALL   ??Subroutine195_0 & 0xFFFF
//  224     }
//  225 
//  226     global_hooks.deallocate = free;
??CrossCallReturnLabel_414:
        MOV     DPTR,#global_hooks + 2
        MOV     A,#??free?relay & 0xff
        MOVX    @DPTR,A
        INC     DPTR
        MOV     A,#(??free?relay >> 8) & 0xff
        LCALL   ?Subroutine102 & 0xFFFF
//  227     if (hooks->free_fn != NULL)
??CrossCallReturnLabel_160:
        LCALL   ??Subroutine199_0 & 0xFFFF
??CrossCallReturnLabel_470:
        JZ      ??CrossCallReturnLabel_415
//  228     {
//  229         global_hooks.deallocate = hooks->free_fn;
        MOV     DPTR,#global_hooks + 2
        LCALL   ??Subroutine195_0 & 0xFFFF
//  230     }
//  231 
//  232     /* use realloc only if both free and malloc are used */
//  233     global_hooks.reallocate = NULL;
??CrossCallReturnLabel_415:
        MOV     DPTR,#global_hooks + 4
        CLR     A
        MOVX    @DPTR,A
        INC     DPTR
        MOVX    @DPTR,A
//  234     if ((global_hooks.allocate == malloc) && (global_hooks.deallocate == free))
        MOV     DPTR,#global_hooks
        MOVX    A,@DPTR
        XRL     A,#??malloc?relay & 0xff
        JNZ     ??cJSON_InitHooks_2
        INC     DPTR
        MOVX    A,@DPTR
        XRL     A,#(??malloc?relay >> 8) & 0xff
??cJSON_InitHooks_2:
        JNZ     ??cJSON_InitHooks_3
        MOV     DPTR,#global_hooks + 2
        MOVX    A,@DPTR
        XRL     A,#??free?relay & 0xff
        JNZ     ??cJSON_InitHooks_4
        INC     DPTR
        MOVX    A,@DPTR
        XRL     A,#(??free?relay >> 8) & 0xff
??cJSON_InitHooks_4:
        JNZ     ??cJSON_InitHooks_3
//  235     {
//  236         global_hooks.reallocate = realloc;
        MOV     DPTR,#global_hooks + 4
??cJSON_InitHooks_1:
        MOV     A,#??realloc?relay & 0xff
        MOVX    @DPTR,A
        INC     DPTR
        MOV     A,#(??realloc?relay >> 8) & 0xff
        MOVX    @DPTR,A
//  237     }
??cJSON_InitHooks_3:
        LJMP    ??Subroutine204_0 & 0xFFFF
        CFI EndBlock cfiBlock13
//  238 }
//  239 
//  240 /* Internal constructor. */

        RSEG BANKED_CODE:CODE:NOROOT(0)
//  241 static cJSON *cJSON_New_Item(const internal_hooks * const hooks)
cJSON_New_Item:
        CFI Block cfiBlock14 Using cfiCommon0
        CFI Function cJSON_New_Item
        CODE
//  242 {
        FUNCALL cJSON_New_Item, memset
        LOCFRAME ISTACK, 0, STACK
        LOCFRAME PSTACK, 0, STACK
        LOCFRAME XSTACK, 12, STACK
        LOCFRAME IOVERLAY, 0, STATIC
        LOCFRAME DOVERLAY, 0, STATIC
        ARGFRAME ISTACK, 0, STACK
        ARGFRAME PSTACK, 0, STACK
        ARGFRAME XSTACK, 12, STACK
        ARGFRAME IOVERLAY, 0, STATIC
        ARGFRAME DOVERLAY, 0, STATIC
        MOV     A,#-0xa
        LCALL   ?BANKED_ENTER_XDATA
        CFI DPH0 load(1, XDATA, add(CFA_XSP16, literal(-1)))
        CFI DPL0 load(1, XDATA, add(CFA_XSP16, literal(-2)))
        CFI ?BRET_EXT load(1, XDATA, add(CFA_XSP16, literal(-3)))
        CFI ?RET_HIGH load(1, XDATA, add(CFA_XSP16, literal(-4)))
        CFI ?RET_LOW load(1, XDATA, add(CFA_XSP16, literal(-5)))
        CFI R7 load(1, XDATA, add(CFA_XSP16, literal(-6)))
        CFI V1 load(1, XDATA, add(CFA_XSP16, literal(-7)))
        CFI V0 load(1, XDATA, add(CFA_XSP16, literal(-8)))
        CFI VB load(1, XDATA, add(CFA_XSP16, literal(-9)))
        CFI R6 load(1, XDATA, add(CFA_XSP16, literal(-10)))
        CFI CFA_SP SP+0
        CFI CFA_XSP16 add(XSP16, 10)
        ; Saved register size: 10
        ; Auto size: 0
        MOV     DPL,R2
        MOV     DPH,R3
//  243     cJSON* node = (cJSON*)hooks->allocate(sizeof(cJSON));
        ; Setup parameters for indirect call
        MOV     R2,#0x12
        MOV     R3,#0x0
        LCALL   ??Subroutine162_0 & 0xFFFF
??CrossCallReturnLabel_250:
        LCALL   ?CALL_IND
        MOV     ?V0 + 0,R2
        MOV     ?V0 + 1,R3
        MOV     R6,?V0 + 0
        MOV     R7,?V0 + 1
//  244     if (node)
        MOV     A,R6
        ORL     A,R7
        JZ      ??cJSON_New_Item_0
//  245     {
//  246         memset(node, '\0', sizeof(cJSON));
        ; Setup parameters for call to function memset
        MOV     ?V0 + 0,#0x12
        MOV     ?V0 + 1,#0x0
        MOV     R0,#?V0 + 0
        LCALL   ?PUSH_XSTACK_I_TWO
        CFI CFA_XSP16 add(XSP16, 12)
        MOV     R4,#0x0
        MOV     R5,#0x0
        LCALL   ??memset?relay
        MOV     A,#0x2
        LCALL   ?DEALLOC_XSTACK8
        CFI CFA_XSP16 add(XSP16, 10)
//  247     }
//  248 
//  249     return node;
??cJSON_New_Item_0:
        MOV     A,R6
        MOV     R2,A
        MOV     A,R7
        MOV     R3,A
        LJMP    ??Subroutine160_0 & 0xFFFF
        CFI EndBlock cfiBlock14
//  250 }
//  251 
//  252 /* Delete a cJSON structure. */

        RSEG BANKED_CODE:CODE:NOROOT(0)
//  253 CJSON_PUBLIC(void) cJSON_Delete(cJSON *item)
cJSON_Delete:
        CFI Block cfiBlock15 Using cfiCommon0
        CFI Function cJSON_Delete
        CODE
//  254 {
        FUNCALL cJSON_Delete, cJSON_Delete
        LOCFRAME ISTACK, 0, STACK
        LOCFRAME PSTACK, 0, STACK
        LOCFRAME XSTACK, 10, STACK
        LOCFRAME IOVERLAY, 0, STATIC
        LOCFRAME DOVERLAY, 0, STATIC
        ARGFRAME ISTACK, 0, STACK
        ARGFRAME PSTACK, 0, STACK
        ARGFRAME XSTACK, 10, STACK
        ARGFRAME IOVERLAY, 0, STATIC
        ARGFRAME DOVERLAY, 0, STATIC
        MOV     A,#-0xa
        LCALL   ?BANKED_ENTER_XDATA
        CFI DPH0 load(1, XDATA, add(CFA_XSP16, literal(-1)))
        CFI DPL0 load(1, XDATA, add(CFA_XSP16, literal(-2)))
        CFI ?BRET_EXT load(1, XDATA, add(CFA_XSP16, literal(-3)))
        CFI ?RET_HIGH load(1, XDATA, add(CFA_XSP16, literal(-4)))
        CFI ?RET_LOW load(1, XDATA, add(CFA_XSP16, literal(-5)))
        CFI R7 load(1, XDATA, add(CFA_XSP16, literal(-6)))
        CFI V1 load(1, XDATA, add(CFA_XSP16, literal(-7)))
        CFI V0 load(1, XDATA, add(CFA_XSP16, literal(-8)))
        CFI VB load(1, XDATA, add(CFA_XSP16, literal(-9)))
        CFI R6 load(1, XDATA, add(CFA_XSP16, literal(-10)))
        CFI CFA_SP SP+0
        CFI CFA_XSP16 add(XSP16, 10)
        ; Saved register size: 10
        ; Auto size: 0
        MOV     A,R2
        MOV     R6,A
        MOV     A,R3
        MOV     R7,A
//  255     cJSON *next = NULL;
        LJMP    ??cJSON_Delete_0 & 0xFFFF
//  256     while (item != NULL)
//  257     {
//  258         next = item->next;
??cJSON_Delete_1:
        MOV     DPL,R6
        MOV     DPH,R7
        LCALL   ?Subroutine38 & 0xFFFF
//  259         if (!(item->type & cJSON_IsReference) && (item->child != NULL))
??CrossCallReturnLabel_54:
        INC     DPTR
        INC     DPTR
        INC     DPTR
        MOVX    A,@DPTR
        ANL     A,#0x1
        JNZ     ??cJSON_Delete_2
        MOV     DPL,R6
        MOV     DPH,R7
        LCALL   ??Subroutine198_0 & 0xFFFF
??CrossCallReturnLabel_472:
        JZ      ??cJSON_Delete_2
//  260         {
//  261             cJSON_Delete(item->child);
        ; Setup parameters for call to function cJSON_Delete
        MOV     DPL,R6
        MOV     DPH,R7
        LCALL   ??Subroutine187_0 & 0xFFFF
//  262         }
??CrossCallReturnLabel_388:
        LCALL   ??cJSON_Delete?relay
//  263         if (!(item->type & cJSON_IsReference) && (item->valuestring != NULL))
??cJSON_Delete_2:
        MOV     DPL,R6
        MOV     DPH,R7
        INC     DPTR
        INC     DPTR
        INC     DPTR
        INC     DPTR
        INC     DPTR
        INC     DPTR
        INC     DPTR
        MOVX    A,@DPTR
        ANL     A,#0x1
        JNZ     ??cJSON_Delete_3
        MOV     DPL,R6
        MOV     DPH,R7
        LCALL   ??Subroutine197_0 & 0xFFFF
??CrossCallReturnLabel_480:
        JZ      ??cJSON_Delete_3
//  264         {
//  265             global_hooks.deallocate(item->valuestring);
        ; Setup parameters for indirect call
        MOV     DPL,R6
        MOV     DPH,R7
        INC     DPTR
        INC     DPTR
        INC     DPTR
        INC     DPTR
        INC     DPTR
        INC     DPTR
        INC     DPTR
        INC     DPTR
        LCALL   ?Subroutine23 & 0xFFFF
//  266         }
??CrossCallReturnLabel_23:
        LCALL   ?CALL_IND
//  267         if (!(item->type & cJSON_StringIsConst) && (item->string != NULL))
??cJSON_Delete_3:
        MOV     DPL,R6
        MOV     DPH,R7
        INC     DPTR
        INC     DPTR
        INC     DPTR
        INC     DPTR
        INC     DPTR
        INC     DPTR
        INC     DPTR
        MOVX    A,@DPTR
        ANL     A,#0x2
        JNZ     ??cJSON_Delete_4
        LCALL   ?Subroutine144 & 0xFFFF
??CrossCallReturnLabel_641:
        MOV     A,R7
        LCALL   ??Subroutine178_0 & 0xFFFF
??CrossCallReturnLabel_345:
        LCALL   ??Subroutine200_0 & 0xFFFF
??CrossCallReturnLabel_443:
        JZ      ??cJSON_Delete_4
//  268         {
//  269             global_hooks.deallocate(item->string);
        ; Setup parameters for indirect call
        LCALL   ?Subroutine144 & 0xFFFF
//  270         }
??CrossCallReturnLabel_642:
        MOV     A,R7
        LCALL   ??Subroutine178_0 & 0xFFFF
??CrossCallReturnLabel_346:
        LCALL   ?Subroutine23 & 0xFFFF
??CrossCallReturnLabel_24:
        LCALL   ?CALL_IND
//  271         global_hooks.deallocate(item);
??cJSON_Delete_4:
        ; Setup parameters for indirect call
        MOV     A,R6
        MOV     R2,A
        MOV     A,R7
        MOV     R3,A
        MOV     DPTR,#global_hooks + 2
        LCALL   ??Subroutine162_0 & 0xFFFF
??CrossCallReturnLabel_251:
        LCALL   ?CALL_IND
//  272         item = next;
        MOV     R6,?V0 + 0
        MOV     R7,?V0 + 1
//  273     }
??cJSON_Delete_0:
        MOV     A,R6
        ORL     A,R7
        JZ      $+5
        LJMP    ??cJSON_Delete_1 & 0xFFFF
//  274 }
        LJMP    ??Subroutine160_0 & 0xFFFF
        CFI EndBlock cfiBlock15
//  275 
//  276 /* get the decimal point character of the current locale */
//  277 static unsigned char get_decimal_point(void)
//  278 {
//  279 #ifdef ENABLE_LOCALES
//  280     struct lconv *lconv = localeconv();
//  281     return (unsigned char) lconv->decimal_point[0];
//  282 #else
//  283     return '.';
//  284 #endif
//  285 }
//  286 
//  287 typedef struct
//  288 {
//  289     const unsigned char *content;
//  290     size_t length;
//  291     size_t offset;
//  292     size_t depth; /* How deeply nested (in arrays/objects) is the input at the current offset. */
//  293     internal_hooks hooks;
//  294 } parse_buffer;
//  295 
//  296 /* check if the given size is left to read in a given parse buffer (starting with 1) */
//  297 #define can_read(buffer, size) ((buffer != NULL) && (((buffer)->offset + size) <= (buffer)->length))
//  298 /* check if the buffer can be accessed at the given index (starting with 0) */
//  299 #define can_access_at_index(buffer, index) ((buffer != NULL) && (((buffer)->offset + index) < (buffer)->length))
//  300 #define cannot_access_at_index(buffer, index) (!can_access_at_index(buffer, index))
//  301 /* get a pointer to the buffer at the position */
//  302 #define buffer_at_offset(buffer) ((buffer)->content + (buffer)->offset)
//  303 
//  304 /* Parse the input text to generate a number, and populate the result into item. */

        RSEG BANKED_CODE:CODE:NOROOT(0)
//  305 static cJSON_bool parse_number(cJSON * const item, parse_buffer * const input_buffer)
parse_number:
        CFI Block cfiBlock16 Using cfiCommon0
        CFI Function parse_number
        CODE
//  306 {
        FUNCALL parse_number, strtod
        LOCFRAME ISTACK, 0, STACK
        LOCFRAME PSTACK, 0, STACK
        LOCFRAME XSTACK, 86, STACK
        LOCFRAME IOVERLAY, 0, STATIC
        LOCFRAME DOVERLAY, 0, STATIC
        ARGFRAME ISTACK, 0, STACK
        ARGFRAME PSTACK, 0, STACK
        ARGFRAME XSTACK, 86, STACK
        ARGFRAME IOVERLAY, 0, STATIC
        ARGFRAME DOVERLAY, 0, STATIC
        MOV     A,#-0x14
        LCALL   ?BANKED_ENTER_XDATA
        CFI DPH0 load(1, XDATA, add(CFA_XSP16, literal(-1)))
        CFI DPL0 load(1, XDATA, add(CFA_XSP16, literal(-2)))
        CFI ?BRET_EXT load(1, XDATA, add(CFA_XSP16, literal(-3)))
        CFI ?RET_HIGH load(1, XDATA, add(CFA_XSP16, literal(-4)))
        CFI ?RET_LOW load(1, XDATA, add(CFA_XSP16, literal(-5)))
        CFI R7 load(1, XDATA, add(CFA_XSP16, literal(-6)))
        CFI V11 load(1, XDATA, add(CFA_XSP16, literal(-7)))
        CFI V10 load(1, XDATA, add(CFA_XSP16, literal(-8)))
        CFI V9 load(1, XDATA, add(CFA_XSP16, literal(-9)))
        CFI V8 load(1, XDATA, add(CFA_XSP16, literal(-10)))
        CFI V7 load(1, XDATA, add(CFA_XSP16, literal(-11)))
        CFI V6 load(1, XDATA, add(CFA_XSP16, literal(-12)))
        CFI V5 load(1, XDATA, add(CFA_XSP16, literal(-13)))
        CFI V4 load(1, XDATA, add(CFA_XSP16, literal(-14)))
        CFI V3 load(1, XDATA, add(CFA_XSP16, literal(-15)))
        CFI V2 load(1, XDATA, add(CFA_XSP16, literal(-16)))
        CFI V1 load(1, XDATA, add(CFA_XSP16, literal(-17)))
        CFI V0 load(1, XDATA, add(CFA_XSP16, literal(-18)))
        CFI VB load(1, XDATA, add(CFA_XSP16, literal(-19)))
        CFI R6 load(1, XDATA, add(CFA_XSP16, literal(-20)))
        CFI CFA_SP SP+0
        CFI CFA_XSP16 add(XSP16, 20)
        ; Saved register size: 20
        ; Auto size: 66
        MOV     A,#-0x42
        LCALL   ?ALLOC_XSTACK8
        CFI CFA_XSP16 add(XSP16, 86)
        MOV     ?V0 + 0,R2
        MOV     ?V0 + 1,R3
        MOV     A,R4
        MOV     R6,A
        MOV     A,R5
        MOV     R7,A
//  307     double number = 0;
//  308     unsigned char *after_end = NULL;
        MOV     DPL,?XSP + 0
        MOV     DPH,?XSP + 1
        CLR     A
        MOVX    @DPTR,A
        INC     DPTR
        MOVX    @DPTR,A
//  309     unsigned char number_c_string[64];
//  310     unsigned char decimal_point = get_decimal_point();
//  311     size_t i = 0;
//  312 
//  313     if ((input_buffer == NULL) || (input_buffer->content == NULL))
        MOV     A,R6
        ORL     A,R7
        JZ      ??parse_number_0
        MOV     DPL,R6
        MOV     DPH,R7
        LCALL   ??Subroutine200_0 & 0xFFFF
??CrossCallReturnLabel_444:
        JNZ     ??parse_number_1
//  314     {
//  315         return false;
??parse_number_0:
        MOV     R2,#0x0
        LJMP    ??parse_number_2 & 0xFFFF
//  316     }
//  317 
//  318     /* copy the number into a temporary buffer and replace '.' with the decimal point
//  319      * of the current locale (for strtod)
//  320      * This also takes care of '\0' not necessarily being available for marking the end of the input */
//  321     for (i = 0; (i < (sizeof(number_c_string) - 1)) && can_access_at_index(input_buffer, i); i++)
??parse_number_1:
        MOV     R0,#0x0
        MOV     R1,#0x0
??parse_number_3:
        MOV     DPL,R6
        MOV     DPH,R7
        INC     DPTR
        INC     DPTR
        INC     DPTR
        INC     DPTR
        MOVX    A,@DPTR
        ADD     A,R0
        MOV     R4,A
        INC     DPTR
        MOVX    A,@DPTR
        ADDC    A,R1
        MOV     R5,A
        MOV     DPL,R6
        MOV     DPH,R7
        LCALL   ??Subroutine179_0 & 0xFFFF
??CrossCallReturnLabel_361:
        JNC     ??parse_number_4
//  322     {
//  323         switch (buffer_at_offset(input_buffer)[i])
        LCALL   ?Subroutine25 & 0xFFFF
??CrossCallReturnLabel_26:
        LCALL   ?UC_SWITCH_SPARSE
`?<Jumptable for parse_number>_0`:
        DATA
        DATA8
        DATA
        DATA8
        DATA
        DATA8
        DB        1
        DATA
        DATA8
        DATA
        DATA8
        DATA
        DATA8
        DB        48
        DATA
        DATA8
        DATA
        DATA8
        DB        57
        DATA
        DATA16
        DATA
        DATA16
        DATA
        DATA16
        DW        ??parse_number_5
        DATA
        DATA8
        DATA
        DATA8
        DATA
        DATA8
        DB        5
        DATA
        DATA8
        DATA
        DATA8
        DATA
        DATA8
        DB        43
        DATA
        DATA16
        DATA
        DATA16
        DATA
        DATA16
        DW        ??parse_number_5
        DATA
        DATA8
        DATA
        DATA8
        DATA
        DATA8
        DB        45
        DATA
        DATA16
        DATA
        DATA16
        DATA
        DATA16
        DW        ??parse_number_5
        DATA
        DATA8
        DATA
        DATA8
        DATA
        DATA8
        DB        46
        DATA
        DATA16
        DATA
        DATA16
        DATA
        DATA16
        DW        ??parse_number_6
        DATA
        DATA8
        DATA
        DATA8
        DATA
        DATA8
        DB        69
        DATA
        DATA16
        DATA
        DATA16
        DATA
        DATA16
        DW        ??parse_number_5
        DATA
        DATA8
        DATA
        DATA8
        DATA
        DATA8
        DB        101
        DATA
        DATA16
        DATA
        DATA16
        DATA
        DATA16
        DW        ??parse_number_5
        DATA
        DATA16
        DATA
        DATA16
        DW        ??parse_number_4
        CODE
//  324         {
//  325             case '0':
//  326             case '1':
//  327             case '2':
//  328             case '3':
//  329             case '4':
//  330             case '5':
//  331             case '6':
//  332             case '7':
//  333             case '8':
//  334             case '9':
//  335             case '+':
//  336             case '-':
//  337             case 'e':
//  338             case 'E':
//  339                 number_c_string[i] = buffer_at_offset(input_buffer)[i];
??parse_number_5:
        LCALL   ?Subroutine25 & 0xFFFF
??CrossCallReturnLabel_27:
        PUSH    A
        CFI CFA_SP SP+-1
        MOV     A,#0x2
        LCALL   ?XSTACK_DISP0_8
        LCALL   ?Subroutine78 & 0xFFFF
??CrossCallReturnLabel_120:
        POP     A
        CFI CFA_SP SP+0
        SJMP    ??parse_number_7
//  340                 break;
//  341 
//  342             case '.':
//  343                 number_c_string[i] = decimal_point;
??parse_number_6:
        MOV     A,#0x2
        LCALL   ?XSTACK_DISP0_8
        LCALL   ?Subroutine78 & 0xFFFF
//  344                 break;
//  345 
//  346             default:
//  347                 goto loop_end;
//  348         }
//  349     }
??CrossCallReturnLabel_121:
        MOV     A,#0x2e
??parse_number_7:
        LCALL   ?Subroutine88 & 0xFFFF
??CrossCallReturnLabel_223:
        CLR     C
        MOV     A,R0
        SUBB    A,#0x3f
        MOV     A,R1
        SUBB    A,#0x0
        JC      ??parse_number_3
//  350 loop_end:
//  351     number_c_string[i] = '\0';
??parse_number_4:
        MOV     A,#0x2
        LCALL   ?XSTACK_DISP0_8
        LCALL   ?Subroutine78 & 0xFFFF
??CrossCallReturnLabel_122:
        CLR     A
        LCALL   ??Subroutine165_0 & 0xFFFF
//  352 
//  353     number = strtod((const char*)number_c_string, (char**)&after_end);
??CrossCallReturnLabel_286:
        MOV     R4,DPL
        MOV     R5,DPH
        MOV     A,#0x2
        LCALL   ?XSTACK_DISP0_8
        MOV     R2,DPL
        MOV     R3,DPH
        LCALL   ??strtod?relay
        MOV     ?V0 + 4,R2
        MOV     ?V0 + 5,R3
        MOV     ?V0 + 6,R4
        MOV     ?V0 + 7,R5
//  354     if (number_c_string == after_end)
        MOV     A,#0x2
        LCALL   ?XSTACK_DISP0_8
        PUSH    DPL
        CFI CFA_SP SP+-1
        PUSH    DPH
        CFI CFA_SP SP+-2
        MOV     DPL,?XSP + 0
        MOV     DPH,?XSP + 1
        LCALL   ??Subroutine226_0 & 0xFFFF
??CrossCallReturnLabel_609:
        POP     DPH
        CFI CFA_SP SP+-1
        POP     DPL
        CFI CFA_SP SP+0
        MOV     A,DPL
        XRL     A,R0
        JNZ     ??parse_number_8
        MOV     A,DPH
        XRL     A,R1
??parse_number_8:
        JNZ     $+5
        LJMP    ??parse_number_0 & 0xFFFF
//  355     {
//  356         return false; /* parse_error */
//  357     }
//  358 
//  359     item->valuedouble = number;
        LCALL   ?Subroutine80 & 0xFFFF
??CrossCallReturnLabel_132:
        MOV     R0,#?V0 + 4
        LCALL   ?L_MOV_TO_X
//  360 
//  361     /* use saturation in case of overflow */
//  362     if (number >= INT_MAX)
        MOV     DPTR,#__Constant_46fffe00
        MOV     R0,#?V0 + 8
        LCALL   ?L_MOV_X
        MOV     R0,#?V0 + 4
        MOV     R1,#?V0 + 8
        LCALL   ?FLT_GE
        JNC     ??parse_number_9
//  363     {
//  364         item->valueint = INT_MAX;
        MOV     DPL,?V0 + 0
        MOV     DPH,?V0 + 1
        INC     DPTR
        INC     DPTR
        INC     DPTR
        INC     DPTR
        INC     DPTR
        INC     DPTR
        INC     DPTR
        INC     DPTR
        INC     DPTR
        INC     DPTR
        MOV     A,#-0x1
        MOVX    @DPTR,A
        INC     DPTR
        MOV     A,#0x7f
        SJMP    ??parse_number_10
//  365     }
//  366     else if (number <= (double)INT_MIN)
??parse_number_9:
        MOV     DPTR,#__Constant_c6fffffe
        MOV     R0,#?V0 + 8
        LCALL   ?L_MOV_X
        MOV     R0,#?V0 + 4
        MOV     R1,#?V0 + 8
        LCALL   ?FLT_LT
        JNC     ??parse_number_11
//  367     {
//  368         item->valueint = INT_MIN;
        MOV     DPL,?V0 + 0
        MOV     DPH,?V0 + 1
        INC     DPTR
        INC     DPTR
        INC     DPTR
        INC     DPTR
        INC     DPTR
        INC     DPTR
        INC     DPTR
        INC     DPTR
        INC     DPTR
        INC     DPTR
        CLR     A
        MOVX    @DPTR,A
        INC     DPTR
        MOV     A,#-0x80
        SJMP    ??parse_number_10
//  369     }
//  370     else
//  371     {
//  372         item->valueint = (int)number;
??parse_number_11:
        MOV     R0,#?V0 + 4
        LCALL   ?FLT_TO_L
        MOV     DPL,?V0 + 0
        MOV     DPH,?V0 + 1
        INC     DPTR
        INC     DPTR
        INC     DPTR
        INC     DPTR
        INC     DPTR
        INC     DPTR
        INC     DPTR
        INC     DPTR
        INC     DPTR
        INC     DPTR
        MOV     A,?V0 + 4
        MOVX    @DPTR,A
        INC     DPTR
        MOV     A,?V0 + 5
//  373     }
??parse_number_10:
        LCALL   ?Subroutine92 & 0xFFFF
//  374 
//  375     item->type = cJSON_Number;
??CrossCallReturnLabel_147:
        MOV     A,#0x8
        LCALL   ??Subroutine212_0 & 0xFFFF
//  376 
//  377     input_buffer->offset += (size_t)(after_end - number_c_string);
??CrossCallReturnLabel_543:
        MOV     A,R6
        ADD     A,#0x4
        MOV     R0,A
        MOV     A,R7
        ADDC    A,#0x0
        MOV     R1,A
        MOV     DPL,R0
        MOV     DPH,R1
        LCALL   ??Subroutine188_0 & 0xFFFF
??CrossCallReturnLabel_377:
        MOV     DPL,?XSP + 0
        MOV     DPH,?XSP + 1
        LCALL   ?Subroutine135 & 0xFFFF
??CrossCallReturnLabel_208:
        MOV     A,#0x2
        LCALL   ?XSTACK_DISP0_8
        MOV     A,R2
        CLR     C
        SUBB    A,DPL
        MOV     R2,A
        MOV     A,R3
        SUBB    A,DPH
        MOV     R3,A
        MOV     DPL,R0
        MOV     DPH,R1
        LCALL   ??Subroutine219_0 & 0xFFFF
//  378     return true;
??CrossCallReturnLabel_570:
        MOV     R2,#0x1
??parse_number_2:
        MOV     R3,#0x0
        MOV     A,#0x42
        LCALL   ?DEALLOC_XSTACK8
        CFI CFA_XSP16 add(XSP16, 20)
        LJMP    ?Subroutine5 & 0xFFFF
        CFI EndBlock cfiBlock16
//  379 }

        RSEG BANKED_CODE:CODE:NOROOT(0)
?Subroutine88:
        CFI Block cfiCond17 Using cfiCommon0
        CFI NoFunction
        CFI Conditional ??CrossCallReturnLabel_223
        CFI R6 load(1, XDATA, add(CFA_XSP16, literal(-20)))
        CFI VB load(1, XDATA, add(CFA_XSP16, literal(-19)))
        CFI V0 load(1, XDATA, add(CFA_XSP16, literal(-18)))
        CFI V1 load(1, XDATA, add(CFA_XSP16, literal(-17)))
        CFI V2 load(1, XDATA, add(CFA_XSP16, literal(-16)))
        CFI V3 load(1, XDATA, add(CFA_XSP16, literal(-15)))
        CFI V4 load(1, XDATA, add(CFA_XSP16, literal(-14)))
        CFI V5 load(1, XDATA, add(CFA_XSP16, literal(-13)))
        CFI V6 load(1, XDATA, add(CFA_XSP16, literal(-12)))
        CFI V7 load(1, XDATA, add(CFA_XSP16, literal(-11)))
        CFI V8 load(1, XDATA, add(CFA_XSP16, literal(-10)))
        CFI V9 load(1, XDATA, add(CFA_XSP16, literal(-9)))
        CFI V10 load(1, XDATA, add(CFA_XSP16, literal(-8)))
        CFI V11 load(1, XDATA, add(CFA_XSP16, literal(-7)))
        CFI R7 load(1, XDATA, add(CFA_XSP16, literal(-6)))
        CFI ?RET_LOW load(1, XDATA, add(CFA_XSP16, literal(-5)))
        CFI ?RET_HIGH load(1, XDATA, add(CFA_XSP16, literal(-4)))
        CFI ?BRET_EXT load(1, XDATA, add(CFA_XSP16, literal(-3)))
        CFI DPL0 load(1, XDATA, add(CFA_XSP16, literal(-2)))
        CFI DPH0 load(1, XDATA, add(CFA_XSP16, literal(-1)))
        CFI CFA_SP SP+0
        CFI CFA_XSP16 add(XSP16, 86)
        CFI Block cfiCond18 Using cfiCommon0
        CFI (cfiCond18) NoFunction
        CFI (cfiCond18) Conditional ??CrossCallReturnLabel_224
        CFI (cfiCond18) R6 load(1, XDATA, add(CFA_XSP16, literal(-16)))
        CFI (cfiCond18) VB load(1, XDATA, add(CFA_XSP16, literal(-15)))
        CFI (cfiCond18) V0 load(1, XDATA, add(CFA_XSP16, literal(-14)))
        CFI (cfiCond18) V1 load(1, XDATA, add(CFA_XSP16, literal(-13)))
        CFI (cfiCond18) V2 load(1, XDATA, add(CFA_XSP16, literal(-12)))
        CFI (cfiCond18) V3 load(1, XDATA, add(CFA_XSP16, literal(-11)))
        CFI (cfiCond18) V4 load(1, XDATA, add(CFA_XSP16, literal(-10)))
        CFI (cfiCond18) V5 load(1, XDATA, add(CFA_XSP16, literal(-9)))
        CFI (cfiCond18) V6 load(1, XDATA, add(CFA_XSP16, literal(-8)))
        CFI (cfiCond18) V7 load(1, XDATA, add(CFA_XSP16, literal(-7)))
        CFI (cfiCond18) R7 load(1, XDATA, add(CFA_XSP16, literal(-6)))
        CFI (cfiCond18) ?RET_LOW load(1, XDATA, add(CFA_XSP16, literal(-5)))
        CFI (cfiCond18) ?RET_HIGH load(1, XDATA, add(CFA_XSP16, literal(-4)))
        CFI (cfiCond18) ?BRET_EXT load(1, XDATA, add(CFA_XSP16, literal(-3)))
        CFI (cfiCond18) DPL0 load(1, XDATA, add(CFA_XSP16, literal(-2)))
        CFI (cfiCond18) DPH0 load(1, XDATA, add(CFA_XSP16, literal(-1)))
        CFI (cfiCond18) CFA_SP SP+0
        CFI (cfiCond18) CFA_XSP16 add(XSP16, 46)
        CFI Block cfiPicker19 Using cfiCommon1
        CFI (cfiPicker19) NoFunction
        CFI (cfiPicker19) Picker
        MOVX    @DPTR,A
        CFI EndBlock cfiCond17
        CFI EndBlock cfiCond18
        CFI EndBlock cfiPicker19
        REQUIRE ??Subroutine150_0
        ; // Fall through to label ??Subroutine150_0

        RSEG BANKED_CODE:CODE:NOROOT(0)
??Subroutine150_0:
        CFI Block cfiCond20 Using cfiCommon0
        CFI NoFunction
        CFI Conditional ??CrossCallReturnLabel_225
        CFI R6 load(1, XDATA, add(CFA_XSP16, literal(-18)))
        CFI VB load(1, XDATA, add(CFA_XSP16, literal(-17)))
        CFI V0 load(1, XDATA, add(CFA_XSP16, literal(-16)))
        CFI V1 load(1, XDATA, add(CFA_XSP16, literal(-15)))
        CFI V2 load(1, XDATA, add(CFA_XSP16, literal(-14)))
        CFI V3 load(1, XDATA, add(CFA_XSP16, literal(-13)))
        CFI V4 load(1, XDATA, add(CFA_XSP16, literal(-12)))
        CFI V5 load(1, XDATA, add(CFA_XSP16, literal(-11)))
        CFI V6 load(1, XDATA, add(CFA_XSP16, literal(-10)))
        CFI V7 load(1, XDATA, add(CFA_XSP16, literal(-9)))
        CFI V8 load(1, XDATA, add(CFA_XSP16, literal(-8)))
        CFI V9 load(1, XDATA, add(CFA_XSP16, literal(-7)))
        CFI R7 load(1, XDATA, add(CFA_XSP16, literal(-6)))
        CFI ?RET_LOW load(1, XDATA, add(CFA_XSP16, literal(-5)))
        CFI ?RET_HIGH load(1, XDATA, add(CFA_XSP16, literal(-4)))
        CFI ?BRET_EXT load(1, XDATA, add(CFA_XSP16, literal(-3)))
        CFI DPL0 load(1, XDATA, add(CFA_XSP16, literal(-2)))
        CFI DPH0 load(1, XDATA, add(CFA_XSP16, literal(-1)))
        CFI CFA_SP SP+0
        CFI CFA_XSP16 add(XSP16, 20)
        CFI Block cfiCond21 Using cfiCommon0
        CFI (cfiCond21) NoFunction
        CFI (cfiCond21) Conditional ??CrossCallReturnLabel_226
        CFI (cfiCond21) R6 load(1, XDATA, add(CFA_XSP16, literal(-18)))
        CFI (cfiCond21) VB load(1, XDATA, add(CFA_XSP16, literal(-17)))
        CFI (cfiCond21) V0 load(1, XDATA, add(CFA_XSP16, literal(-16)))
        CFI (cfiCond21) V1 load(1, XDATA, add(CFA_XSP16, literal(-15)))
        CFI (cfiCond21) V2 load(1, XDATA, add(CFA_XSP16, literal(-14)))
        CFI (cfiCond21) V3 load(1, XDATA, add(CFA_XSP16, literal(-13)))
        CFI (cfiCond21) V4 load(1, XDATA, add(CFA_XSP16, literal(-12)))
        CFI (cfiCond21) V5 load(1, XDATA, add(CFA_XSP16, literal(-11)))
        CFI (cfiCond21) V6 load(1, XDATA, add(CFA_XSP16, literal(-10)))
        CFI (cfiCond21) V7 load(1, XDATA, add(CFA_XSP16, literal(-9)))
        CFI (cfiCond21) V8 load(1, XDATA, add(CFA_XSP16, literal(-8)))
        CFI (cfiCond21) V9 load(1, XDATA, add(CFA_XSP16, literal(-7)))
        CFI (cfiCond21) R7 load(1, XDATA, add(CFA_XSP16, literal(-6)))
        CFI (cfiCond21) ?RET_LOW load(1, XDATA, add(CFA_XSP16, literal(-5)))
        CFI (cfiCond21) ?RET_HIGH load(1, XDATA, add(CFA_XSP16, literal(-4)))
        CFI (cfiCond21) ?BRET_EXT load(1, XDATA, add(CFA_XSP16, literal(-3)))
        CFI (cfiCond21) DPL0 load(1, XDATA, add(CFA_XSP16, literal(-2)))
        CFI (cfiCond21) DPH0 load(1, XDATA, add(CFA_XSP16, literal(-1)))
        CFI (cfiCond21) CFA_SP SP+0
        CFI (cfiCond21) CFA_XSP16 add(XSP16, 20)
        CFI Block cfiCond22 Using cfiCommon0
        CFI (cfiCond22) NoFunction
        CFI (cfiCond22) Conditional ??CrossCallReturnLabel_223
        CFI (cfiCond22) R6 load(1, XDATA, add(CFA_XSP16, literal(-20)))
        CFI (cfiCond22) VB load(1, XDATA, add(CFA_XSP16, literal(-19)))
        CFI (cfiCond22) V0 load(1, XDATA, add(CFA_XSP16, literal(-18)))
        CFI (cfiCond22) V1 load(1, XDATA, add(CFA_XSP16, literal(-17)))
        CFI (cfiCond22) V2 load(1, XDATA, add(CFA_XSP16, literal(-16)))
        CFI (cfiCond22) V3 load(1, XDATA, add(CFA_XSP16, literal(-15)))
        CFI (cfiCond22) V4 load(1, XDATA, add(CFA_XSP16, literal(-14)))
        CFI (cfiCond22) V5 load(1, XDATA, add(CFA_XSP16, literal(-13)))
        CFI (cfiCond22) V6 load(1, XDATA, add(CFA_XSP16, literal(-12)))
        CFI (cfiCond22) V7 load(1, XDATA, add(CFA_XSP16, literal(-11)))
        CFI (cfiCond22) V8 load(1, XDATA, add(CFA_XSP16, literal(-10)))
        CFI (cfiCond22) V9 load(1, XDATA, add(CFA_XSP16, literal(-9)))
        CFI (cfiCond22) V10 load(1, XDATA, add(CFA_XSP16, literal(-8)))
        CFI (cfiCond22) V11 load(1, XDATA, add(CFA_XSP16, literal(-7)))
        CFI (cfiCond22) R7 load(1, XDATA, add(CFA_XSP16, literal(-6)))
        CFI (cfiCond22) ?RET_LOW load(1, XDATA, add(CFA_XSP16, literal(-5)))
        CFI (cfiCond22) ?RET_HIGH load(1, XDATA, add(CFA_XSP16, literal(-4)))
        CFI (cfiCond22) ?BRET_EXT load(1, XDATA, add(CFA_XSP16, literal(-3)))
        CFI (cfiCond22) DPL0 load(1, XDATA, add(CFA_XSP16, literal(-2)))
        CFI (cfiCond22) DPH0 load(1, XDATA, add(CFA_XSP16, literal(-1)))
        CFI (cfiCond22) CFA_SP SP+0
        CFI (cfiCond22) CFA_XSP16 add(XSP16, 86)
        CFI Block cfiCond23 Using cfiCommon0
        CFI (cfiCond23) NoFunction
        CFI (cfiCond23) Conditional ??CrossCallReturnLabel_224
        CFI (cfiCond23) R6 load(1, XDATA, add(CFA_XSP16, literal(-16)))
        CFI (cfiCond23) VB load(1, XDATA, add(CFA_XSP16, literal(-15)))
        CFI (cfiCond23) V0 load(1, XDATA, add(CFA_XSP16, literal(-14)))
        CFI (cfiCond23) V1 load(1, XDATA, add(CFA_XSP16, literal(-13)))
        CFI (cfiCond23) V2 load(1, XDATA, add(CFA_XSP16, literal(-12)))
        CFI (cfiCond23) V3 load(1, XDATA, add(CFA_XSP16, literal(-11)))
        CFI (cfiCond23) V4 load(1, XDATA, add(CFA_XSP16, literal(-10)))
        CFI (cfiCond23) V5 load(1, XDATA, add(CFA_XSP16, literal(-9)))
        CFI (cfiCond23) V6 load(1, XDATA, add(CFA_XSP16, literal(-8)))
        CFI (cfiCond23) V7 load(1, XDATA, add(CFA_XSP16, literal(-7)))
        CFI (cfiCond23) R7 load(1, XDATA, add(CFA_XSP16, literal(-6)))
        CFI (cfiCond23) ?RET_LOW load(1, XDATA, add(CFA_XSP16, literal(-5)))
        CFI (cfiCond23) ?RET_HIGH load(1, XDATA, add(CFA_XSP16, literal(-4)))
        CFI (cfiCond23) ?BRET_EXT load(1, XDATA, add(CFA_XSP16, literal(-3)))
        CFI (cfiCond23) DPL0 load(1, XDATA, add(CFA_XSP16, literal(-2)))
        CFI (cfiCond23) DPH0 load(1, XDATA, add(CFA_XSP16, literal(-1)))
        CFI (cfiCond23) CFA_SP SP+0
        CFI (cfiCond23) CFA_XSP16 add(XSP16, 46)
        CFI Block cfiPicker24 Using cfiCommon1
        CFI (cfiPicker24) NoFunction
        CFI (cfiPicker24) Picker
        MOV     A,R0
        ADD     A,#0x1
        INC     R0
        MOV     A,R1
        ADDC    A,#0x0
        MOV     R1,A
        RET
        CFI EndBlock cfiCond20
        CFI EndBlock cfiCond21
        CFI EndBlock cfiCond22
        CFI EndBlock cfiCond23
        CFI EndBlock cfiPicker24

        RSEG BANKED_CODE:CODE:NOROOT(0)
?Subroutine78:
        CFI Block cfiCond25 Using cfiCommon0
        CFI NoFunction
        CFI Conditional ??CrossCallReturnLabel_120
        CFI R6 load(1, XDATA, add(CFA_XSP16, literal(-20)))
        CFI VB load(1, XDATA, add(CFA_XSP16, literal(-19)))
        CFI V0 load(1, XDATA, add(CFA_XSP16, literal(-18)))
        CFI V1 load(1, XDATA, add(CFA_XSP16, literal(-17)))
        CFI V2 load(1, XDATA, add(CFA_XSP16, literal(-16)))
        CFI V3 load(1, XDATA, add(CFA_XSP16, literal(-15)))
        CFI V4 load(1, XDATA, add(CFA_XSP16, literal(-14)))
        CFI V5 load(1, XDATA, add(CFA_XSP16, literal(-13)))
        CFI V6 load(1, XDATA, add(CFA_XSP16, literal(-12)))
        CFI V7 load(1, XDATA, add(CFA_XSP16, literal(-11)))
        CFI V8 load(1, XDATA, add(CFA_XSP16, literal(-10)))
        CFI V9 load(1, XDATA, add(CFA_XSP16, literal(-9)))
        CFI V10 load(1, XDATA, add(CFA_XSP16, literal(-8)))
        CFI V11 load(1, XDATA, add(CFA_XSP16, literal(-7)))
        CFI R7 load(1, XDATA, add(CFA_XSP16, literal(-6)))
        CFI ?RET_LOW load(1, XDATA, add(CFA_XSP16, literal(-5)))
        CFI ?RET_HIGH load(1, XDATA, add(CFA_XSP16, literal(-4)))
        CFI ?BRET_EXT load(1, XDATA, add(CFA_XSP16, literal(-3)))
        CFI DPL0 load(1, XDATA, add(CFA_XSP16, literal(-2)))
        CFI DPH0 load(1, XDATA, add(CFA_XSP16, literal(-1)))
        CFI CFA_SP SP+-1
        CFI CFA_XSP16 add(XSP16, 86)
        CFI Block cfiCond26 Using cfiCommon0
        CFI (cfiCond26) NoFunction
        CFI (cfiCond26) Conditional ??CrossCallReturnLabel_121
        CFI (cfiCond26) R6 load(1, XDATA, add(CFA_XSP16, literal(-20)))
        CFI (cfiCond26) VB load(1, XDATA, add(CFA_XSP16, literal(-19)))
        CFI (cfiCond26) V0 load(1, XDATA, add(CFA_XSP16, literal(-18)))
        CFI (cfiCond26) V1 load(1, XDATA, add(CFA_XSP16, literal(-17)))
        CFI (cfiCond26) V2 load(1, XDATA, add(CFA_XSP16, literal(-16)))
        CFI (cfiCond26) V3 load(1, XDATA, add(CFA_XSP16, literal(-15)))
        CFI (cfiCond26) V4 load(1, XDATA, add(CFA_XSP16, literal(-14)))
        CFI (cfiCond26) V5 load(1, XDATA, add(CFA_XSP16, literal(-13)))
        CFI (cfiCond26) V6 load(1, XDATA, add(CFA_XSP16, literal(-12)))
        CFI (cfiCond26) V7 load(1, XDATA, add(CFA_XSP16, literal(-11)))
        CFI (cfiCond26) V8 load(1, XDATA, add(CFA_XSP16, literal(-10)))
        CFI (cfiCond26) V9 load(1, XDATA, add(CFA_XSP16, literal(-9)))
        CFI (cfiCond26) V10 load(1, XDATA, add(CFA_XSP16, literal(-8)))
        CFI (cfiCond26) V11 load(1, XDATA, add(CFA_XSP16, literal(-7)))
        CFI (cfiCond26) R7 load(1, XDATA, add(CFA_XSP16, literal(-6)))
        CFI (cfiCond26) ?RET_LOW load(1, XDATA, add(CFA_XSP16, literal(-5)))
        CFI (cfiCond26) ?RET_HIGH load(1, XDATA, add(CFA_XSP16, literal(-4)))
        CFI (cfiCond26) ?BRET_EXT load(1, XDATA, add(CFA_XSP16, literal(-3)))
        CFI (cfiCond26) DPL0 load(1, XDATA, add(CFA_XSP16, literal(-2)))
        CFI (cfiCond26) DPH0 load(1, XDATA, add(CFA_XSP16, literal(-1)))
        CFI (cfiCond26) CFA_SP SP+0
        CFI (cfiCond26) CFA_XSP16 add(XSP16, 86)
        CFI Block cfiCond27 Using cfiCommon0
        CFI (cfiCond27) NoFunction
        CFI (cfiCond27) Conditional ??CrossCallReturnLabel_122
        CFI (cfiCond27) R6 load(1, XDATA, add(CFA_XSP16, literal(-20)))
        CFI (cfiCond27) VB load(1, XDATA, add(CFA_XSP16, literal(-19)))
        CFI (cfiCond27) V0 load(1, XDATA, add(CFA_XSP16, literal(-18)))
        CFI (cfiCond27) V1 load(1, XDATA, add(CFA_XSP16, literal(-17)))
        CFI (cfiCond27) V2 load(1, XDATA, add(CFA_XSP16, literal(-16)))
        CFI (cfiCond27) V3 load(1, XDATA, add(CFA_XSP16, literal(-15)))
        CFI (cfiCond27) V4 load(1, XDATA, add(CFA_XSP16, literal(-14)))
        CFI (cfiCond27) V5 load(1, XDATA, add(CFA_XSP16, literal(-13)))
        CFI (cfiCond27) V6 load(1, XDATA, add(CFA_XSP16, literal(-12)))
        CFI (cfiCond27) V7 load(1, XDATA, add(CFA_XSP16, literal(-11)))
        CFI (cfiCond27) V8 load(1, XDATA, add(CFA_XSP16, literal(-10)))
        CFI (cfiCond27) V9 load(1, XDATA, add(CFA_XSP16, literal(-9)))
        CFI (cfiCond27) V10 load(1, XDATA, add(CFA_XSP16, literal(-8)))
        CFI (cfiCond27) V11 load(1, XDATA, add(CFA_XSP16, literal(-7)))
        CFI (cfiCond27) R7 load(1, XDATA, add(CFA_XSP16, literal(-6)))
        CFI (cfiCond27) ?RET_LOW load(1, XDATA, add(CFA_XSP16, literal(-5)))
        CFI (cfiCond27) ?RET_HIGH load(1, XDATA, add(CFA_XSP16, literal(-4)))
        CFI (cfiCond27) ?BRET_EXT load(1, XDATA, add(CFA_XSP16, literal(-3)))
        CFI (cfiCond27) DPL0 load(1, XDATA, add(CFA_XSP16, literal(-2)))
        CFI (cfiCond27) DPH0 load(1, XDATA, add(CFA_XSP16, literal(-1)))
        CFI (cfiCond27) CFA_SP SP+0
        CFI (cfiCond27) CFA_XSP16 add(XSP16, 86)
        CFI Block cfiPicker28 Using cfiCommon1
        CFI (cfiPicker28) NoFunction
        CFI (cfiPicker28) Picker
        LCALL   ?Subroutine138 & 0xFFFF
??CrossCallReturnLabel_214:
        RET
        CFI EndBlock cfiCond25
        CFI EndBlock cfiCond26
        CFI EndBlock cfiCond27
        CFI EndBlock cfiPicker28

        RSEG BANKED_CODE:CODE:NOROOT(0)
?Subroutine138:
        CFI Block cfiCond29 Using cfiCommon0
        CFI NoFunction
        CFI Conditional ??CrossCallReturnLabel_214, ??CrossCallReturnLabel_120
        CFI R6 load(1, XDATA, add(CFA_XSP16, literal(-20)))
        CFI VB load(1, XDATA, add(CFA_XSP16, literal(-19)))
        CFI V0 load(1, XDATA, add(CFA_XSP16, literal(-18)))
        CFI V1 load(1, XDATA, add(CFA_XSP16, literal(-17)))
        CFI V2 load(1, XDATA, add(CFA_XSP16, literal(-16)))
        CFI V3 load(1, XDATA, add(CFA_XSP16, literal(-15)))
        CFI V4 load(1, XDATA, add(CFA_XSP16, literal(-14)))
        CFI V5 load(1, XDATA, add(CFA_XSP16, literal(-13)))
        CFI V6 load(1, XDATA, add(CFA_XSP16, literal(-12)))
        CFI V7 load(1, XDATA, add(CFA_XSP16, literal(-11)))
        CFI V8 load(1, XDATA, add(CFA_XSP16, literal(-10)))
        CFI V9 load(1, XDATA, add(CFA_XSP16, literal(-9)))
        CFI V10 load(1, XDATA, add(CFA_XSP16, literal(-8)))
        CFI V11 load(1, XDATA, add(CFA_XSP16, literal(-7)))
        CFI R7 load(1, XDATA, add(CFA_XSP16, literal(-6)))
        CFI ?RET_LOW load(1, XDATA, add(CFA_XSP16, literal(-5)))
        CFI ?RET_HIGH load(1, XDATA, add(CFA_XSP16, literal(-4)))
        CFI ?BRET_EXT load(1, XDATA, add(CFA_XSP16, literal(-3)))
        CFI DPL0 load(1, XDATA, add(CFA_XSP16, literal(-2)))
        CFI DPH0 load(1, XDATA, add(CFA_XSP16, literal(-1)))
        CFI CFA_SP SP+-1
        CFI CFA_XSP16 add(XSP16, 86)
        CFI Block cfiCond30 Using cfiCommon0
        CFI (cfiCond30) NoFunction
        CFI (cfiCond30) Conditional ??CrossCallReturnLabel_214, ??CrossCallReturnLabel_121
        CFI (cfiCond30) R6 load(1, XDATA, add(CFA_XSP16, literal(-20)))
        CFI (cfiCond30) VB load(1, XDATA, add(CFA_XSP16, literal(-19)))
        CFI (cfiCond30) V0 load(1, XDATA, add(CFA_XSP16, literal(-18)))
        CFI (cfiCond30) V1 load(1, XDATA, add(CFA_XSP16, literal(-17)))
        CFI (cfiCond30) V2 load(1, XDATA, add(CFA_XSP16, literal(-16)))
        CFI (cfiCond30) V3 load(1, XDATA, add(CFA_XSP16, literal(-15)))
        CFI (cfiCond30) V4 load(1, XDATA, add(CFA_XSP16, literal(-14)))
        CFI (cfiCond30) V5 load(1, XDATA, add(CFA_XSP16, literal(-13)))
        CFI (cfiCond30) V6 load(1, XDATA, add(CFA_XSP16, literal(-12)))
        CFI (cfiCond30) V7 load(1, XDATA, add(CFA_XSP16, literal(-11)))
        CFI (cfiCond30) V8 load(1, XDATA, add(CFA_XSP16, literal(-10)))
        CFI (cfiCond30) V9 load(1, XDATA, add(CFA_XSP16, literal(-9)))
        CFI (cfiCond30) V10 load(1, XDATA, add(CFA_XSP16, literal(-8)))
        CFI (cfiCond30) V11 load(1, XDATA, add(CFA_XSP16, literal(-7)))
        CFI (cfiCond30) R7 load(1, XDATA, add(CFA_XSP16, literal(-6)))
        CFI (cfiCond30) ?RET_LOW load(1, XDATA, add(CFA_XSP16, literal(-5)))
        CFI (cfiCond30) ?RET_HIGH load(1, XDATA, add(CFA_XSP16, literal(-4)))
        CFI (cfiCond30) ?BRET_EXT load(1, XDATA, add(CFA_XSP16, literal(-3)))
        CFI (cfiCond30) DPL0 load(1, XDATA, add(CFA_XSP16, literal(-2)))
        CFI (cfiCond30) DPH0 load(1, XDATA, add(CFA_XSP16, literal(-1)))
        CFI (cfiCond30) CFA_SP SP+0
        CFI (cfiCond30) CFA_XSP16 add(XSP16, 86)
        CFI Block cfiCond31 Using cfiCommon0
        CFI (cfiCond31) NoFunction
        CFI (cfiCond31) Conditional ??CrossCallReturnLabel_214, ??CrossCallReturnLabel_122
        CFI (cfiCond31) R6 load(1, XDATA, add(CFA_XSP16, literal(-20)))
        CFI (cfiCond31) VB load(1, XDATA, add(CFA_XSP16, literal(-19)))
        CFI (cfiCond31) V0 load(1, XDATA, add(CFA_XSP16, literal(-18)))
        CFI (cfiCond31) V1 load(1, XDATA, add(CFA_XSP16, literal(-17)))
        CFI (cfiCond31) V2 load(1, XDATA, add(CFA_XSP16, literal(-16)))
        CFI (cfiCond31) V3 load(1, XDATA, add(CFA_XSP16, literal(-15)))
        CFI (cfiCond31) V4 load(1, XDATA, add(CFA_XSP16, literal(-14)))
        CFI (cfiCond31) V5 load(1, XDATA, add(CFA_XSP16, literal(-13)))
        CFI (cfiCond31) V6 load(1, XDATA, add(CFA_XSP16, literal(-12)))
        CFI (cfiCond31) V7 load(1, XDATA, add(CFA_XSP16, literal(-11)))
        CFI (cfiCond31) V8 load(1, XDATA, add(CFA_XSP16, literal(-10)))
        CFI (cfiCond31) V9 load(1, XDATA, add(CFA_XSP16, literal(-9)))
        CFI (cfiCond31) V10 load(1, XDATA, add(CFA_XSP16, literal(-8)))
        CFI (cfiCond31) V11 load(1, XDATA, add(CFA_XSP16, literal(-7)))
        CFI (cfiCond31) R7 load(1, XDATA, add(CFA_XSP16, literal(-6)))
        CFI (cfiCond31) ?RET_LOW load(1, XDATA, add(CFA_XSP16, literal(-5)))
        CFI (cfiCond31) ?RET_HIGH load(1, XDATA, add(CFA_XSP16, literal(-4)))
        CFI (cfiCond31) ?BRET_EXT load(1, XDATA, add(CFA_XSP16, literal(-3)))
        CFI (cfiCond31) DPL0 load(1, XDATA, add(CFA_XSP16, literal(-2)))
        CFI (cfiCond31) DPH0 load(1, XDATA, add(CFA_XSP16, literal(-1)))
        CFI (cfiCond31) CFA_SP SP+0
        CFI (cfiCond31) CFA_XSP16 add(XSP16, 86)
        CFI Block cfiCond32 Using cfiCommon0
        CFI (cfiCond32) NoFunction
        CFI (cfiCond32) Conditional ??CrossCallReturnLabel_213, ??CrossCallReturnLabel_118
        CFI (cfiCond32) R6 load(1, XDATA, add(CFA_XSP16, literal(-16)))
        CFI (cfiCond32) VB load(1, XDATA, add(CFA_XSP16, literal(-15)))
        CFI (cfiCond32) V0 load(1, XDATA, add(CFA_XSP16, literal(-14)))
        CFI (cfiCond32) V1 load(1, XDATA, add(CFA_XSP16, literal(-13)))
        CFI (cfiCond32) V2 load(1, XDATA, add(CFA_XSP16, literal(-12)))
        CFI (cfiCond32) V3 load(1, XDATA, add(CFA_XSP16, literal(-11)))
        CFI (cfiCond32) V4 load(1, XDATA, add(CFA_XSP16, literal(-10)))
        CFI (cfiCond32) V5 load(1, XDATA, add(CFA_XSP16, literal(-9)))
        CFI (cfiCond32) V6 load(1, XDATA, add(CFA_XSP16, literal(-8)))
        CFI (cfiCond32) V7 load(1, XDATA, add(CFA_XSP16, literal(-7)))
        CFI (cfiCond32) R7 load(1, XDATA, add(CFA_XSP16, literal(-6)))
        CFI (cfiCond32) ?RET_LOW load(1, XDATA, add(CFA_XSP16, literal(-5)))
        CFI (cfiCond32) ?RET_HIGH load(1, XDATA, add(CFA_XSP16, literal(-4)))
        CFI (cfiCond32) ?BRET_EXT load(1, XDATA, add(CFA_XSP16, literal(-3)))
        CFI (cfiCond32) DPL0 load(1, XDATA, add(CFA_XSP16, literal(-2)))
        CFI (cfiCond32) DPH0 load(1, XDATA, add(CFA_XSP16, literal(-1)))
        CFI (cfiCond32) CFA_SP SP+0
        CFI (cfiCond32) CFA_XSP16 add(XSP16, 46)
        CFI Block cfiCond33 Using cfiCommon0
        CFI (cfiCond33) NoFunction
        CFI (cfiCond33) Conditional ??CrossCallReturnLabel_213, ??CrossCallReturnLabel_119
        CFI (cfiCond33) R6 load(1, XDATA, add(CFA_XSP16, literal(-16)))
        CFI (cfiCond33) VB load(1, XDATA, add(CFA_XSP16, literal(-15)))
        CFI (cfiCond33) V0 load(1, XDATA, add(CFA_XSP16, literal(-14)))
        CFI (cfiCond33) V1 load(1, XDATA, add(CFA_XSP16, literal(-13)))
        CFI (cfiCond33) V2 load(1, XDATA, add(CFA_XSP16, literal(-12)))
        CFI (cfiCond33) V3 load(1, XDATA, add(CFA_XSP16, literal(-11)))
        CFI (cfiCond33) V4 load(1, XDATA, add(CFA_XSP16, literal(-10)))
        CFI (cfiCond33) V5 load(1, XDATA, add(CFA_XSP16, literal(-9)))
        CFI (cfiCond33) V6 load(1, XDATA, add(CFA_XSP16, literal(-8)))
        CFI (cfiCond33) V7 load(1, XDATA, add(CFA_XSP16, literal(-7)))
        CFI (cfiCond33) R7 load(1, XDATA, add(CFA_XSP16, literal(-6)))
        CFI (cfiCond33) ?RET_LOW load(1, XDATA, add(CFA_XSP16, literal(-5)))
        CFI (cfiCond33) ?RET_HIGH load(1, XDATA, add(CFA_XSP16, literal(-4)))
        CFI (cfiCond33) ?BRET_EXT load(1, XDATA, add(CFA_XSP16, literal(-3)))
        CFI (cfiCond33) DPL0 load(1, XDATA, add(CFA_XSP16, literal(-2)))
        CFI (cfiCond33) DPH0 load(1, XDATA, add(CFA_XSP16, literal(-1)))
        CFI (cfiCond33) CFA_SP SP+0
        CFI (cfiCond33) CFA_XSP16 add(XSP16, 46)
        CFI Block cfiPicker34 Using cfiCommon1
        CFI (cfiPicker34) NoFunction
        CFI (cfiPicker34) Picker
        MOV     A,DPL
        ADD     A,R0
        MOV     DPL,A
        MOV     A,DPH
        ADDC    A,R1
        MOV     DPH,A
        RET
        CFI EndBlock cfiCond29
        CFI EndBlock cfiCond30
        CFI EndBlock cfiCond31
        CFI EndBlock cfiCond32
        CFI EndBlock cfiCond33
        CFI EndBlock cfiPicker34

        RSEG BANKED_CODE:CODE:NOROOT(0)
?Subroutine25:
        CFI Block cfiCond35 Using cfiCommon0
        CFI NoFunction
        CFI Conditional ??CrossCallReturnLabel_26
        CFI R6 load(1, XDATA, add(CFA_XSP16, literal(-20)))
        CFI VB load(1, XDATA, add(CFA_XSP16, literal(-19)))
        CFI V0 load(1, XDATA, add(CFA_XSP16, literal(-18)))
        CFI V1 load(1, XDATA, add(CFA_XSP16, literal(-17)))
        CFI V2 load(1, XDATA, add(CFA_XSP16, literal(-16)))
        CFI V3 load(1, XDATA, add(CFA_XSP16, literal(-15)))
        CFI V4 load(1, XDATA, add(CFA_XSP16, literal(-14)))
        CFI V5 load(1, XDATA, add(CFA_XSP16, literal(-13)))
        CFI V6 load(1, XDATA, add(CFA_XSP16, literal(-12)))
        CFI V7 load(1, XDATA, add(CFA_XSP16, literal(-11)))
        CFI V8 load(1, XDATA, add(CFA_XSP16, literal(-10)))
        CFI V9 load(1, XDATA, add(CFA_XSP16, literal(-9)))
        CFI V10 load(1, XDATA, add(CFA_XSP16, literal(-8)))
        CFI V11 load(1, XDATA, add(CFA_XSP16, literal(-7)))
        CFI R7 load(1, XDATA, add(CFA_XSP16, literal(-6)))
        CFI ?RET_LOW load(1, XDATA, add(CFA_XSP16, literal(-5)))
        CFI ?RET_HIGH load(1, XDATA, add(CFA_XSP16, literal(-4)))
        CFI ?BRET_EXT load(1, XDATA, add(CFA_XSP16, literal(-3)))
        CFI DPL0 load(1, XDATA, add(CFA_XSP16, literal(-2)))
        CFI DPH0 load(1, XDATA, add(CFA_XSP16, literal(-1)))
        CFI CFA_SP SP+0
        CFI CFA_XSP16 add(XSP16, 86)
        CFI Block cfiCond36 Using cfiCommon0
        CFI (cfiCond36) NoFunction
        CFI (cfiCond36) Conditional ??CrossCallReturnLabel_27
        CFI (cfiCond36) R6 load(1, XDATA, add(CFA_XSP16, literal(-20)))
        CFI (cfiCond36) VB load(1, XDATA, add(CFA_XSP16, literal(-19)))
        CFI (cfiCond36) V0 load(1, XDATA, add(CFA_XSP16, literal(-18)))
        CFI (cfiCond36) V1 load(1, XDATA, add(CFA_XSP16, literal(-17)))
        CFI (cfiCond36) V2 load(1, XDATA, add(CFA_XSP16, literal(-16)))
        CFI (cfiCond36) V3 load(1, XDATA, add(CFA_XSP16, literal(-15)))
        CFI (cfiCond36) V4 load(1, XDATA, add(CFA_XSP16, literal(-14)))
        CFI (cfiCond36) V5 load(1, XDATA, add(CFA_XSP16, literal(-13)))
        CFI (cfiCond36) V6 load(1, XDATA, add(CFA_XSP16, literal(-12)))
        CFI (cfiCond36) V7 load(1, XDATA, add(CFA_XSP16, literal(-11)))
        CFI (cfiCond36) V8 load(1, XDATA, add(CFA_XSP16, literal(-10)))
        CFI (cfiCond36) V9 load(1, XDATA, add(CFA_XSP16, literal(-9)))
        CFI (cfiCond36) V10 load(1, XDATA, add(CFA_XSP16, literal(-8)))
        CFI (cfiCond36) V11 load(1, XDATA, add(CFA_XSP16, literal(-7)))
        CFI (cfiCond36) R7 load(1, XDATA, add(CFA_XSP16, literal(-6)))
        CFI (cfiCond36) ?RET_LOW load(1, XDATA, add(CFA_XSP16, literal(-5)))
        CFI (cfiCond36) ?RET_HIGH load(1, XDATA, add(CFA_XSP16, literal(-4)))
        CFI (cfiCond36) ?BRET_EXT load(1, XDATA, add(CFA_XSP16, literal(-3)))
        CFI (cfiCond36) DPL0 load(1, XDATA, add(CFA_XSP16, literal(-2)))
        CFI (cfiCond36) DPH0 load(1, XDATA, add(CFA_XSP16, literal(-1)))
        CFI (cfiCond36) CFA_SP SP+0
        CFI (cfiCond36) CFA_XSP16 add(XSP16, 86)
        CFI Block cfiPicker37 Using cfiCommon1
        CFI (cfiPicker37) NoFunction
        CFI (cfiPicker37) Picker
        MOV     DPL,R6
        MOV     DPH,R7
        LCALL   ?Subroutine134 & 0xFFFF
??CrossCallReturnLabel_540:
        MOV     DPL,R6
        MOV     DPH,R7
        LCALL   ?Subroutine135 & 0xFFFF
??CrossCallReturnLabel_210:
        MOV     A,R2
        ADD     A,R0
        MOV     DPL,A
        MOV     A,R3
        ADDC    A,R1
        MOV     DPH,A
        MOVX    A,@DPTR
        RET
        CFI EndBlock cfiCond35
        CFI EndBlock cfiCond36
        CFI EndBlock cfiPicker37

        RSEG BANKED_CODE:CODE:NOROOT(0)
?Subroutine135:
        CFI Block cfiCond38 Using cfiCommon0
        CFI NoFunction
        CFI Conditional ??CrossCallReturnLabel_208
        CFI R6 load(1, XDATA, add(CFA_XSP16, literal(-20)))
        CFI VB load(1, XDATA, add(CFA_XSP16, literal(-19)))
        CFI V0 load(1, XDATA, add(CFA_XSP16, literal(-18)))
        CFI V1 load(1, XDATA, add(CFA_XSP16, literal(-17)))
        CFI V2 load(1, XDATA, add(CFA_XSP16, literal(-16)))
        CFI V3 load(1, XDATA, add(CFA_XSP16, literal(-15)))
        CFI V4 load(1, XDATA, add(CFA_XSP16, literal(-14)))
        CFI V5 load(1, XDATA, add(CFA_XSP16, literal(-13)))
        CFI V6 load(1, XDATA, add(CFA_XSP16, literal(-12)))
        CFI V7 load(1, XDATA, add(CFA_XSP16, literal(-11)))
        CFI V8 load(1, XDATA, add(CFA_XSP16, literal(-10)))
        CFI V9 load(1, XDATA, add(CFA_XSP16, literal(-9)))
        CFI V10 load(1, XDATA, add(CFA_XSP16, literal(-8)))
        CFI V11 load(1, XDATA, add(CFA_XSP16, literal(-7)))
        CFI R7 load(1, XDATA, add(CFA_XSP16, literal(-6)))
        CFI ?RET_LOW load(1, XDATA, add(CFA_XSP16, literal(-5)))
        CFI ?RET_HIGH load(1, XDATA, add(CFA_XSP16, literal(-4)))
        CFI ?BRET_EXT load(1, XDATA, add(CFA_XSP16, literal(-3)))
        CFI DPL0 load(1, XDATA, add(CFA_XSP16, literal(-2)))
        CFI DPH0 load(1, XDATA, add(CFA_XSP16, literal(-1)))
        CFI CFA_SP SP+0
        CFI CFA_XSP16 add(XSP16, 86)
        CFI Block cfiCond39 Using cfiCommon0
        CFI (cfiCond39) NoFunction
        CFI (cfiCond39) Conditional ??CrossCallReturnLabel_210, ??CrossCallReturnLabel_26
        CFI (cfiCond39) R6 load(1, XDATA, add(CFA_XSP16, literal(-20)))
        CFI (cfiCond39) VB load(1, XDATA, add(CFA_XSP16, literal(-19)))
        CFI (cfiCond39) V0 load(1, XDATA, add(CFA_XSP16, literal(-18)))
        CFI (cfiCond39) V1 load(1, XDATA, add(CFA_XSP16, literal(-17)))
        CFI (cfiCond39) V2 load(1, XDATA, add(CFA_XSP16, literal(-16)))
        CFI (cfiCond39) V3 load(1, XDATA, add(CFA_XSP16, literal(-15)))
        CFI (cfiCond39) V4 load(1, XDATA, add(CFA_XSP16, literal(-14)))
        CFI (cfiCond39) V5 load(1, XDATA, add(CFA_XSP16, literal(-13)))
        CFI (cfiCond39) V6 load(1, XDATA, add(CFA_XSP16, literal(-12)))
        CFI (cfiCond39) V7 load(1, XDATA, add(CFA_XSP16, literal(-11)))
        CFI (cfiCond39) V8 load(1, XDATA, add(CFA_XSP16, literal(-10)))
        CFI (cfiCond39) V9 load(1, XDATA, add(CFA_XSP16, literal(-9)))
        CFI (cfiCond39) V10 load(1, XDATA, add(CFA_XSP16, literal(-8)))
        CFI (cfiCond39) V11 load(1, XDATA, add(CFA_XSP16, literal(-7)))
        CFI (cfiCond39) R7 load(1, XDATA, add(CFA_XSP16, literal(-6)))
        CFI (cfiCond39) ?RET_LOW load(1, XDATA, add(CFA_XSP16, literal(-5)))
        CFI (cfiCond39) ?RET_HIGH load(1, XDATA, add(CFA_XSP16, literal(-4)))
        CFI (cfiCond39) ?BRET_EXT load(1, XDATA, add(CFA_XSP16, literal(-3)))
        CFI (cfiCond39) DPL0 load(1, XDATA, add(CFA_XSP16, literal(-2)))
        CFI (cfiCond39) DPH0 load(1, XDATA, add(CFA_XSP16, literal(-1)))
        CFI (cfiCond39) CFA_SP SP+0
        CFI (cfiCond39) CFA_XSP16 add(XSP16, 86)
        CFI Block cfiCond40 Using cfiCommon0
        CFI (cfiCond40) NoFunction
        CFI (cfiCond40) Conditional ??CrossCallReturnLabel_210, ??CrossCallReturnLabel_27
        CFI (cfiCond40) R6 load(1, XDATA, add(CFA_XSP16, literal(-20)))
        CFI (cfiCond40) VB load(1, XDATA, add(CFA_XSP16, literal(-19)))
        CFI (cfiCond40) V0 load(1, XDATA, add(CFA_XSP16, literal(-18)))
        CFI (cfiCond40) V1 load(1, XDATA, add(CFA_XSP16, literal(-17)))
        CFI (cfiCond40) V2 load(1, XDATA, add(CFA_XSP16, literal(-16)))
        CFI (cfiCond40) V3 load(1, XDATA, add(CFA_XSP16, literal(-15)))
        CFI (cfiCond40) V4 load(1, XDATA, add(CFA_XSP16, literal(-14)))
        CFI (cfiCond40) V5 load(1, XDATA, add(CFA_XSP16, literal(-13)))
        CFI (cfiCond40) V6 load(1, XDATA, add(CFA_XSP16, literal(-12)))
        CFI (cfiCond40) V7 load(1, XDATA, add(CFA_XSP16, literal(-11)))
        CFI (cfiCond40) V8 load(1, XDATA, add(CFA_XSP16, literal(-10)))
        CFI (cfiCond40) V9 load(1, XDATA, add(CFA_XSP16, literal(-9)))
        CFI (cfiCond40) V10 load(1, XDATA, add(CFA_XSP16, literal(-8)))
        CFI (cfiCond40) V11 load(1, XDATA, add(CFA_XSP16, literal(-7)))
        CFI (cfiCond40) R7 load(1, XDATA, add(CFA_XSP16, literal(-6)))
        CFI (cfiCond40) ?RET_LOW load(1, XDATA, add(CFA_XSP16, literal(-5)))
        CFI (cfiCond40) ?RET_HIGH load(1, XDATA, add(CFA_XSP16, literal(-4)))
        CFI (cfiCond40) ?BRET_EXT load(1, XDATA, add(CFA_XSP16, literal(-3)))
        CFI (cfiCond40) DPL0 load(1, XDATA, add(CFA_XSP16, literal(-2)))
        CFI (cfiCond40) DPH0 load(1, XDATA, add(CFA_XSP16, literal(-1)))
        CFI (cfiCond40) CFA_SP SP+0
        CFI (cfiCond40) CFA_XSP16 add(XSP16, 86)
        CFI Block cfiCond41 Using cfiCommon0
        CFI (cfiCond41) NoFunction
        CFI (cfiCond41) Conditional ??CrossCallReturnLabel_209
        CFI (cfiCond41) R6 load(1, XDATA, add(CFA_XSP16, literal(-18)))
        CFI (cfiCond41) VB load(1, XDATA, add(CFA_XSP16, literal(-17)))
        CFI (cfiCond41) V0 load(1, XDATA, add(CFA_XSP16, literal(-16)))
        CFI (cfiCond41) V1 load(1, XDATA, add(CFA_XSP16, literal(-15)))
        CFI (cfiCond41) V2 load(1, XDATA, add(CFA_XSP16, literal(-14)))
        CFI (cfiCond41) V3 load(1, XDATA, add(CFA_XSP16, literal(-13)))
        CFI (cfiCond41) V4 load(1, XDATA, add(CFA_XSP16, literal(-12)))
        CFI (cfiCond41) V5 load(1, XDATA, add(CFA_XSP16, literal(-11)))
        CFI (cfiCond41) V6 load(1, XDATA, add(CFA_XSP16, literal(-10)))
        CFI (cfiCond41) V7 load(1, XDATA, add(CFA_XSP16, literal(-9)))
        CFI (cfiCond41) V8 load(1, XDATA, add(CFA_XSP16, literal(-8)))
        CFI (cfiCond41) V9 load(1, XDATA, add(CFA_XSP16, literal(-7)))
        CFI (cfiCond41) R7 load(1, XDATA, add(CFA_XSP16, literal(-6)))
        CFI (cfiCond41) ?RET_LOW load(1, XDATA, add(CFA_XSP16, literal(-5)))
        CFI (cfiCond41) ?RET_HIGH load(1, XDATA, add(CFA_XSP16, literal(-4)))
        CFI (cfiCond41) ?BRET_EXT load(1, XDATA, add(CFA_XSP16, literal(-3)))
        CFI (cfiCond41) DPL0 load(1, XDATA, add(CFA_XSP16, literal(-2)))
        CFI (cfiCond41) DPH0 load(1, XDATA, add(CFA_XSP16, literal(-1)))
        CFI (cfiCond41) CFA_SP SP+0
        CFI (cfiCond41) CFA_XSP16 add(XSP16, 20)
        CFI Block cfiPicker42 Using cfiCommon1
        CFI (cfiPicker42) NoFunction
        CFI (cfiPicker42) Picker
        MOVX    A,@DPTR
        ADD     A,R2
        MOV     R2,A
        INC     DPTR
        MOVX    A,@DPTR
        ADDC    A,R3
        MOV     R3,A
        RET
        CFI EndBlock cfiCond38
        CFI EndBlock cfiCond39
        CFI EndBlock cfiCond40
        CFI EndBlock cfiCond41
        CFI EndBlock cfiPicker42
//  380 
//  381 /* don't ask me, but the original cJSON_SetNumberValue returns an integer or double */

        RSEG BANKED_CODE:CODE:NOROOT(0)
//  382 CJSON_PUBLIC(double) cJSON_SetNumberHelper(cJSON *object, double number)
cJSON_SetNumberHelper:
        CFI Block cfiBlock43 Using cfiCommon0
        CFI Function cJSON_SetNumberHelper
        CODE
//  383 {
        MOV     A,#-0x10
        LCALL   ?BANKED_ENTER_XDATA
        CFI DPH0 load(1, XDATA, add(CFA_XSP16, literal(-1)))
        CFI DPL0 load(1, XDATA, add(CFA_XSP16, literal(-2)))
        CFI ?BRET_EXT load(1, XDATA, add(CFA_XSP16, literal(-3)))
        CFI ?RET_HIGH load(1, XDATA, add(CFA_XSP16, literal(-4)))
        CFI ?RET_LOW load(1, XDATA, add(CFA_XSP16, literal(-5)))
        CFI R7 load(1, XDATA, add(CFA_XSP16, literal(-6)))
        CFI V7 load(1, XDATA, add(CFA_XSP16, literal(-7)))
        CFI V6 load(1, XDATA, add(CFA_XSP16, literal(-8)))
        CFI V5 load(1, XDATA, add(CFA_XSP16, literal(-9)))
        CFI V4 load(1, XDATA, add(CFA_XSP16, literal(-10)))
        CFI V3 load(1, XDATA, add(CFA_XSP16, literal(-11)))
        CFI V2 load(1, XDATA, add(CFA_XSP16, literal(-12)))
        CFI V1 load(1, XDATA, add(CFA_XSP16, literal(-13)))
        CFI V0 load(1, XDATA, add(CFA_XSP16, literal(-14)))
        CFI VB load(1, XDATA, add(CFA_XSP16, literal(-15)))
        CFI R6 load(1, XDATA, add(CFA_XSP16, literal(-16)))
        CFI CFA_SP SP+0
        CFI CFA_XSP16 add(XSP16, 16)
        ; Saved register size: 16
        ; Auto size: 0
        MOV     A,#0x10
        LCALL   ?XSTACK_DISP0_8
        MOV     R0,#?V0 + 4
        LCALL   ?L_MOV_X
//  384     if (number >= INT_MAX)
        MOV     DPTR,#__Constant_46fffe00
        MOV     R0,#?V0 + 0
        LCALL   ?L_MOV_X
        MOV     R0,#?V0 + 4
        MOV     R1,#?V0 + 0
        LCALL   ?FLT_GE
        JNC     ??cJSON_SetNumberHelper_0
//  385     {
//  386         object->valueint = INT_MAX;
        MOV     DPL,R2
        MOV     DPH,R3
        INC     DPTR
        INC     DPTR
        INC     DPTR
        INC     DPTR
        INC     DPTR
        INC     DPTR
        INC     DPTR
        INC     DPTR
        INC     DPTR
        INC     DPTR
        MOV     A,#-0x1
        MOVX    @DPTR,A
        INC     DPTR
        MOV     A,#0x7f
        SJMP    ??cJSON_SetNumberHelper_1
//  387     }
//  388     else if (number <= (double)INT_MIN)
??cJSON_SetNumberHelper_0:
        MOV     DPTR,#__Constant_c6fffffe
        MOV     R0,#?V0 + 0
        LCALL   ?L_MOV_X
        MOV     R0,#?V0 + 4
        MOV     R1,#?V0 + 0
        LCALL   ?FLT_LT
        JNC     ??cJSON_SetNumberHelper_2
//  389     {
//  390         object->valueint = INT_MIN;
        MOV     DPL,R2
        MOV     DPH,R3
        INC     DPTR
        INC     DPTR
        INC     DPTR
        INC     DPTR
        INC     DPTR
        INC     DPTR
        INC     DPTR
        INC     DPTR
        INC     DPTR
        INC     DPTR
        CLR     A
        MOVX    @DPTR,A
        INC     DPTR
        MOV     A,#-0x80
        SJMP    ??cJSON_SetNumberHelper_1
//  391     }
//  392     else
//  393     {
//  394         object->valueint = (int)number;
??cJSON_SetNumberHelper_2:
        MOV     ?V0 + 0,?V0 + 4
        MOV     ?V0 + 1,?V0 + 5
        MOV     ?V0 + 2,?V0 + 6
        MOV     ?V0 + 3,?V0 + 7
        MOV     R0,#?V0 + 0
        LCALL   ?FLT_TO_L
        MOV     DPL,R2
        MOV     DPH,R3
        INC     DPTR
        INC     DPTR
        INC     DPTR
        INC     DPTR
        INC     DPTR
        INC     DPTR
        INC     DPTR
        INC     DPTR
        INC     DPTR
        INC     DPTR
        MOV     A,?V0 + 0
        MOVX    @DPTR,A
        INC     DPTR
        MOV     A,?V0 + 1
??cJSON_SetNumberHelper_1:
        MOVX    @DPTR,A
//  395     }
//  396 
//  397     return object->valuedouble = number;
        MOV     A,R2
        ADD     A,#0xc
        MOV     R0,A
        MOV     A,R3
        ADDC    A,#0x0
        MOV     R1,A
        MOV     A,R0
        MOV     R2,A
        MOV     A,R1
        MOV     R3,A
        MOV     DPL,R2
        MOV     DPH,R3
        MOV     R0,#?V0 + 4
        LCALL   ?L_MOV_TO_X
        MOV     DPL,R2
        MOV     DPH,R3
        LCALL   ?XLOAD_R2345
        SJMP    ??Subroutine151_0
        CFI EndBlock cfiBlock43
//  398 }

        RSEG BANKED_CODE:CODE:NOROOT(0)
?Subroutine2:
        CFI Block cfiBlock44 Using cfiCommon0
        CFI NoFunction
        CFI CFA_SP SP+0
        CFI CFA_XSP16 add(XSP16, 46)
        CFI VB load(1, XDATA, add(CFA_XSP16, literal(-15)))
        CFI DPL0 load(1, XDATA, add(CFA_XSP16, literal(-2)))
        CFI DPH0 load(1, XDATA, add(CFA_XSP16, literal(-1)))
        CFI R6 load(1, XDATA, add(CFA_XSP16, literal(-16)))
        CFI R7 load(1, XDATA, add(CFA_XSP16, literal(-6)))
        CFI V0 load(1, XDATA, add(CFA_XSP16, literal(-14)))
        CFI V1 load(1, XDATA, add(CFA_XSP16, literal(-13)))
        CFI V2 load(1, XDATA, add(CFA_XSP16, literal(-12)))
        CFI V3 load(1, XDATA, add(CFA_XSP16, literal(-11)))
        CFI V4 load(1, XDATA, add(CFA_XSP16, literal(-10)))
        CFI V5 load(1, XDATA, add(CFA_XSP16, literal(-9)))
        CFI V6 load(1, XDATA, add(CFA_XSP16, literal(-8)))
        CFI V7 load(1, XDATA, add(CFA_XSP16, literal(-7)))
        CFI ?BRET_EXT load(1, XDATA, add(CFA_XSP16, literal(-3)))
        CFI ?RET_HIGH load(1, XDATA, add(CFA_XSP16, literal(-4)))
        CFI ?RET_LOW load(1, XDATA, add(CFA_XSP16, literal(-5)))
        CFI Invalid
        LCALL   ?DEALLOC_XSTACK8
        CFI EndBlock cfiBlock44
        REQUIRE ??Subroutine151_0
        ; // Fall through to label ??Subroutine151_0

        RSEG BANKED_CODE:CODE:NOROOT(0)
??Subroutine151_0:
        CFI Block cfiBlock45 Using cfiCommon0
        CFI NoFunction
        CFI CFA_SP SP+0
        CFI CFA_XSP16 add(XSP16, 16)
        CFI VB load(1, XDATA, add(CFA_XSP16, literal(-15)))
        CFI DPL0 load(1, XDATA, add(CFA_XSP16, literal(-2)))
        CFI DPH0 load(1, XDATA, add(CFA_XSP16, literal(-1)))
        CFI R6 load(1, XDATA, add(CFA_XSP16, literal(-16)))
        CFI R7 load(1, XDATA, add(CFA_XSP16, literal(-6)))
        CFI V0 load(1, XDATA, add(CFA_XSP16, literal(-14)))
        CFI V1 load(1, XDATA, add(CFA_XSP16, literal(-13)))
        CFI V2 load(1, XDATA, add(CFA_XSP16, literal(-12)))
        CFI V3 load(1, XDATA, add(CFA_XSP16, literal(-11)))
        CFI V4 load(1, XDATA, add(CFA_XSP16, literal(-10)))
        CFI V5 load(1, XDATA, add(CFA_XSP16, literal(-9)))
        CFI V6 load(1, XDATA, add(CFA_XSP16, literal(-8)))
        CFI V7 load(1, XDATA, add(CFA_XSP16, literal(-7)))
        CFI ?BRET_EXT load(1, XDATA, add(CFA_XSP16, literal(-3)))
        CFI ?RET_HIGH load(1, XDATA, add(CFA_XSP16, literal(-4)))
        CFI ?RET_LOW load(1, XDATA, add(CFA_XSP16, literal(-5)))
        MOV     R7,#0x8
        LJMP    ?BANKED_LEAVE_XDATA
        CFI EndBlock cfiBlock45
//  399 

        RSEG BANKED_CODE:CODE:NOROOT(0)
//  400 CJSON_PUBLIC(char*) cJSON_SetValuestring(cJSON *object, const char *valuestring)
cJSON_SetValuestring:
        CFI Block cfiBlock46 Using cfiCommon0
        CFI Function cJSON_SetValuestring
        CODE
//  401 {
        FUNCALL cJSON_SetValuestring, strlen
        LOCFRAME ISTACK, 0, STACK
        LOCFRAME PSTACK, 0, STACK
        LOCFRAME XSTACK, 14, STACK
        LOCFRAME IOVERLAY, 0, STATIC
        LOCFRAME DOVERLAY, 0, STATIC
        ARGFRAME ISTACK, 0, STACK
        ARGFRAME PSTACK, 0, STACK
        ARGFRAME XSTACK, 14, STACK
        ARGFRAME IOVERLAY, 0, STATIC
        ARGFRAME DOVERLAY, 0, STATIC
        FUNCALL cJSON_SetValuestring, strlen
        LOCFRAME ISTACK, 0, STACK
        LOCFRAME PSTACK, 0, STACK
        LOCFRAME XSTACK, 14, STACK
        LOCFRAME IOVERLAY, 0, STATIC
        LOCFRAME DOVERLAY, 0, STATIC
        ARGFRAME ISTACK, 0, STACK
        ARGFRAME PSTACK, 0, STACK
        ARGFRAME XSTACK, 14, STACK
        ARGFRAME IOVERLAY, 0, STATIC
        ARGFRAME DOVERLAY, 0, STATIC
        FUNCALL cJSON_SetValuestring, strcpy
        LOCFRAME ISTACK, 0, STACK
        LOCFRAME PSTACK, 0, STACK
        LOCFRAME XSTACK, 14, STACK
        LOCFRAME IOVERLAY, 0, STATIC
        LOCFRAME DOVERLAY, 0, STATIC
        ARGFRAME ISTACK, 0, STACK
        ARGFRAME PSTACK, 0, STACK
        ARGFRAME XSTACK, 14, STACK
        ARGFRAME IOVERLAY, 0, STATIC
        ARGFRAME DOVERLAY, 0, STATIC
        FUNCALL cJSON_SetValuestring, cJSON_strdup
        LOCFRAME ISTACK, 0, STACK
        LOCFRAME PSTACK, 0, STACK
        LOCFRAME XSTACK, 14, STACK
        LOCFRAME IOVERLAY, 0, STATIC
        LOCFRAME DOVERLAY, 0, STATIC
        ARGFRAME ISTACK, 0, STACK
        ARGFRAME PSTACK, 0, STACK
        ARGFRAME XSTACK, 14, STACK
        ARGFRAME IOVERLAY, 0, STATIC
        ARGFRAME DOVERLAY, 0, STATIC
        FUNCALL cJSON_SetValuestring, cJSON_free
        LOCFRAME ISTACK, 0, STACK
        LOCFRAME PSTACK, 0, STACK
        LOCFRAME XSTACK, 14, STACK
        LOCFRAME IOVERLAY, 0, STATIC
        LOCFRAME DOVERLAY, 0, STATIC
        ARGFRAME ISTACK, 0, STACK
        ARGFRAME PSTACK, 0, STACK
        ARGFRAME XSTACK, 14, STACK
        ARGFRAME IOVERLAY, 0, STATIC
        ARGFRAME DOVERLAY, 0, STATIC
        MOV     A,#-0xe
        LCALL   ?BANKED_ENTER_XDATA
        CFI DPH0 load(1, XDATA, add(CFA_XSP16, literal(-1)))
        CFI DPL0 load(1, XDATA, add(CFA_XSP16, literal(-2)))
        CFI ?BRET_EXT load(1, XDATA, add(CFA_XSP16, literal(-3)))
        CFI ?RET_HIGH load(1, XDATA, add(CFA_XSP16, literal(-4)))
        CFI ?RET_LOW load(1, XDATA, add(CFA_XSP16, literal(-5)))
        CFI R7 load(1, XDATA, add(CFA_XSP16, literal(-6)))
        CFI V5 load(1, XDATA, add(CFA_XSP16, literal(-7)))
        CFI V4 load(1, XDATA, add(CFA_XSP16, literal(-8)))
        CFI V3 load(1, XDATA, add(CFA_XSP16, literal(-9)))
        CFI V2 load(1, XDATA, add(CFA_XSP16, literal(-10)))
        CFI V1 load(1, XDATA, add(CFA_XSP16, literal(-11)))
        CFI V0 load(1, XDATA, add(CFA_XSP16, literal(-12)))
        CFI VB load(1, XDATA, add(CFA_XSP16, literal(-13)))
        CFI R6 load(1, XDATA, add(CFA_XSP16, literal(-14)))
        CFI CFA_SP SP+0
        CFI CFA_XSP16 add(XSP16, 14)
        ; Saved register size: 14
        ; Auto size: 0
        MOV     ?V0 + 0,R2
        MOV     ?V0 + 1,R3
        MOV     A,R4
        MOV     R6,A
        MOV     A,R5
        MOV     R7,A
//  402     char *copy = NULL;
//  403     /* if object's type is not cJSON_String or is cJSON_IsReference, it should not set valuestring */
//  404     if (!(object->type & cJSON_String) || (object->type & cJSON_IsReference))
        MOV     DPL,R2
        MOV     DPH,R3
        INC     DPTR
        INC     DPTR
        INC     DPTR
        INC     DPTR
        INC     DPTR
        INC     DPTR
        MOVX    A,@DPTR
        ANL     A,#0x10
        MOV     R0,A
        INC     DPTR
        MOVX    A,@DPTR
        ANL     A,#0x1
        MOV     R1,A
        MOV     A,#0x10
        XRL     A,R0
        JNZ     ??cJSON_SetValuestring_0
        MOV     A,R1
??cJSON_SetValuestring_0:
        JZ      ??cJSON_SetValuestring_1
//  405     {
//  406         return NULL;
??cJSON_SetValuestring_2:
        MOV     R2,#0x0
        MOV     R3,#0x0
        LJMP    ??cJSON_SetValuestring_3 & 0xFFFF
//  407     }
//  408     if (strlen(valuestring) <= strlen(object->valuestring))
??cJSON_SetValuestring_1:
        ; Setup parameters for call to function strlen
        LCALL   ?Subroutine63 & 0xFFFF
??CrossCallReturnLabel_95:
        MOV     ?V0 + 2,R2
        MOV     ?V0 + 3,R3
        ; Setup parameters for call to function strlen
        MOV     A,R6
        MOV     R2,A
        MOV     A,R7
        MOV     R3,A
        LCALL   ??strlen?relay
        MOV     ?V0 + 4,R2
        MOV     ?V0 + 5,R3
        CLR     C
        MOV     A,?V0 + 2
        SUBB    A,?V0 + 4
        MOV     A,?V0 + 3
        SUBB    A,?V0 + 5
        JC      ??cJSON_SetValuestring_4
//  409     {
//  410         strcpy(object->valuestring, valuestring);
        LCALL   ?Subroutine110 & 0xFFFF
??CrossCallReturnLabel_173:
        MOV     ?V0 + 0,R0
        MOV     ?V0 + 1,R1
        ; Setup parameters for call to function strcpy
        MOV     A,R6
        MOV     R4,A
        MOV     A,R7
        MOV     R5,A
        MOV     DPL,R0
        MOV     DPH,R1
        LCALL   ??Subroutine188_0 & 0xFFFF
??CrossCallReturnLabel_378:
        LCALL   ??strcpy?relay
//  411         return object->valuestring;
        MOV     DPL,?V0 + 0
        MOV     DPH,?V0 + 1
        MOVX    A,@DPTR
        MOV     R2,A
        INC     DPTR
        MOVX    A,@DPTR
        SJMP    ??cJSON_SetValuestring_5
//  412     }
//  413     copy = (char*) cJSON_strdup((const unsigned char*)valuestring, &global_hooks);
??cJSON_SetValuestring_4:
        ; Setup parameters for call to function cJSON_strdup
        MOV     R4,#global_hooks & 0xff
        MOV     R5,#(global_hooks >> 8) & 0xff
        MOV     A,R6
        MOV     R2,A
        MOV     A,R7
        MOV     R3,A
        LCALL   ??cJSON_strdup?relay
        MOV     ?V0 + 2,R2
        MOV     ?V0 + 3,R3
        MOV     R6,?V0 + 2
        MOV     R7,?V0 + 3
//  414     if (copy == NULL)
        MOV     A,R6
        ORL     A,R7
        JZ      ??cJSON_SetValuestring_2
//  415     {
//  416         return NULL;
//  417     }
//  418     if (object->valuestring != NULL)
        MOV     DPL,?V0 + 0
        MOV     DPH,?V0 + 1
        LCALL   ??Subroutine197_0 & 0xFFFF
??CrossCallReturnLabel_481:
        JZ      ??CrossCallReturnLabel_97
//  419     {
//  420         cJSON_free(object->valuestring);
        ; Setup parameters for call to function cJSON_free
        MOV     DPL,?V0 + 0
        MOV     DPH,?V0 + 1
        INC     DPTR
        INC     DPTR
        INC     DPTR
        INC     DPTR
        INC     DPTR
        INC     DPTR
        INC     DPTR
        INC     DPTR
        LCALL   ?Subroutine64 & 0xFFFF
//  421     }
//  422     object->valuestring = copy;
??CrossCallReturnLabel_97:
        MOV     DPL,?V0 + 0
        MOV     DPH,?V0 + 1
        INC     DPTR
        INC     DPTR
        INC     DPTR
        INC     DPTR
        INC     DPTR
        INC     DPTR
        INC     DPTR
        INC     DPTR
        MOV     A,R6
        MOVX    @DPTR,A
        INC     DPTR
        MOV     A,R7
        MOVX    @DPTR,A
//  423 
//  424     return copy;
        MOV     A,R6
        MOV     R2,A
        MOV     A,R7
??cJSON_SetValuestring_5:
        MOV     R3,A
??cJSON_SetValuestring_3:
        LJMP    ??Subroutine189_0 & 0xFFFF
        CFI EndBlock cfiBlock46
//  425 }
//  426 
//  427 typedef struct
//  428 {
//  429     unsigned char *buffer;
//  430     size_t length;
//  431     size_t offset;
//  432     size_t depth; /* current nesting depth (for formatted printing) */
//  433     cJSON_bool noalloc;
//  434     cJSON_bool format; /* is this print a formatted print */
//  435     internal_hooks hooks;
//  436 } printbuffer;
//  437 
//  438 /* realloc printbuffer if necessary to have at least "needed" bytes more */

        RSEG BANKED_CODE:CODE:NOROOT(0)
//  439 static unsigned char* ensure(printbuffer * const p, size_t needed)
ensure:
        CFI Block cfiBlock47 Using cfiCommon0
        CFI Function ensure
        CODE
//  440 {
        FUNCALL ensure, memcpy
        LOCFRAME ISTACK, 0, STACK
        LOCFRAME PSTACK, 0, STACK
        LOCFRAME XSTACK, 16, STACK
        LOCFRAME IOVERLAY, 0, STATIC
        LOCFRAME DOVERLAY, 0, STATIC
        ARGFRAME ISTACK, 0, STACK
        ARGFRAME PSTACK, 0, STACK
        ARGFRAME XSTACK, 16, STACK
        ARGFRAME IOVERLAY, 0, STATIC
        ARGFRAME DOVERLAY, 0, STATIC
        MOV     A,#-0xe
        LCALL   ?BANKED_ENTER_XDATA
        CFI DPH0 load(1, XDATA, add(CFA_XSP16, literal(-1)))
        CFI DPL0 load(1, XDATA, add(CFA_XSP16, literal(-2)))
        CFI ?BRET_EXT load(1, XDATA, add(CFA_XSP16, literal(-3)))
        CFI ?RET_HIGH load(1, XDATA, add(CFA_XSP16, literal(-4)))
        CFI ?RET_LOW load(1, XDATA, add(CFA_XSP16, literal(-5)))
        CFI R7 load(1, XDATA, add(CFA_XSP16, literal(-6)))
        CFI V5 load(1, XDATA, add(CFA_XSP16, literal(-7)))
        CFI V4 load(1, XDATA, add(CFA_XSP16, literal(-8)))
        CFI V3 load(1, XDATA, add(CFA_XSP16, literal(-9)))
        CFI V2 load(1, XDATA, add(CFA_XSP16, literal(-10)))
        CFI V1 load(1, XDATA, add(CFA_XSP16, literal(-11)))
        CFI V0 load(1, XDATA, add(CFA_XSP16, literal(-12)))
        CFI VB load(1, XDATA, add(CFA_XSP16, literal(-13)))
        CFI R6 load(1, XDATA, add(CFA_XSP16, literal(-14)))
        CFI CFA_SP SP+0
        CFI CFA_XSP16 add(XSP16, 14)
        ; Saved register size: 14
        ; Auto size: 0
        MOV     ?V0 + 0,R2
        MOV     ?V0 + 1,R3
//  441     unsigned char *newbuffer = NULL;
//  442     size_t newsize = 0;
//  443 
//  444     if ((p == NULL) || (p->buffer == NULL))
        MOV     A,R2
        ORL     A,?V0 + 1
        JZ      ??ensure_0
        MOV     DPL,R2
        MOV     DPH,R3
        LCALL   ??Subroutine200_0 & 0xFFFF
??CrossCallReturnLabel_445:
        JNZ     ??ensure_1
//  445     {
//  446         return NULL;
??ensure_0:
        MOV     R2,#0x0
        MOV     R3,#0x0
        LJMP    ??ensure_2 & 0xFFFF
//  447     }
//  448 
//  449     if ((p->length > 0) && (p->offset >= p->length))
??ensure_1:
        MOV     DPL,R2
        MOV     DPH,R3
        LCALL   ??Subroutine199_0 & 0xFFFF
??CrossCallReturnLabel_471:
        JZ      ??ensure_3
        MOV     DPL,R2
        MOV     DPH,R3
        INC     DPTR
        INC     DPTR
        INC     DPTR
        INC     DPTR
        LCALL   ?Subroutine22 & 0xFFFF
??CrossCallReturnLabel_8:
        JNC     ??ensure_0
//  450     {
//  451         /* make sure that offset is valid */
//  452         return NULL;
//  453     }
//  454 
//  455     if (needed > INT_MAX)
??ensure_3:
        CLR     C
        MOV     A,R5
        SUBB    A,#-0x80
        JNC     ??ensure_0
//  456     {
//  457         /* sizes bigger than INT_MAX are currently not supported */
//  458         return NULL;
//  459     }
//  460 
//  461     needed += p->offset + 1;
        MOV     DPL,R2
        MOV     DPH,R3
        INC     DPTR
        INC     DPTR
        INC     DPTR
        INC     DPTR
        LCALL   ?Subroutine33 & 0xFFFF
??CrossCallReturnLabel_39:
        MOV     A,R4
        ADD     A,R0
        MOV     R4,A
        MOV     A,R5
        ADDC    A,R1
        MOV     R5,A
//  462     if (needed <= p->length)
        MOV     DPL,R2
        MOV     DPH,R3
        INC     DPTR
        INC     DPTR
        CLR     C
        MOVX    A,@DPTR
        SUBB    A,R4
        INC     DPTR
        MOVX    A,@DPTR
        SUBB    A,R5
        MOV     DPL,R2
        MOV     DPH,R3
        INC     DPTR
        INC     DPTR
        INC     DPTR
        INC     DPTR
        JC      ??ensure_4
//  463     {
//  464         return p->buffer + p->offset;
        DEC     R0
        LCALL   ?Subroutine51 & 0xFFFF
//  465     }
??CrossCallReturnLabel_77:
        LJMP    ??ensure_5 & 0xFFFF
//  466 
//  467     if (p->noalloc) {
??ensure_4:
        LCALL   ??Subroutine198_0 & 0xFFFF
??CrossCallReturnLabel_473:
        JNZ     ??ensure_0
//  468         return NULL;
//  469     }
//  470 
//  471     /* calculate new buffer size */
//  472     if (needed > (INT_MAX / 2))
        CLR     C
        MOV     A,R5
        SUBB    A,#0x40
        JC      ??ensure_6
//  473     {
//  474         /* overflow of int, use INT_MAX if possible */
//  475         if (needed <= INT_MAX)
        CLR     C
        MOV     A,R5
        SUBB    A,#-0x80
        JNC     ??ensure_0
//  476         {
//  477             newsize = INT_MAX;
        MOV     R6,#-0x1
        MOV     R7,#0x7f
        SJMP    ??ensure_7
//  478         }
//  479         else
//  480         {
//  481             return NULL;
//  482         }
//  483     }
//  484     else
//  485     {
//  486         newsize = needed * 2;
??ensure_6:
        MOV     A,R4
        CLR     C
        RLC     A
        MOV     R4,A
        MOV     A,R5
        RLC     A
        MOV     R5,A
        MOV     A,R4
        MOV     R6,A
        MOV     A,R5
        MOV     R7,A
//  487     }
//  488 
//  489     if (p->hooks.reallocate != NULL)
??ensure_7:
        MOV     A,R2
        LCALL   ??Subroutine227_0 & 0xFFFF
??CrossCallReturnLabel_636:
        MOV     A,R3
        LCALL   ??Subroutine178_0 & 0xFFFF
??CrossCallReturnLabel_347:
        LCALL   ??Subroutine200_0 & 0xFFFF
??CrossCallReturnLabel_446:
        JZ      ??ensure_8
//  490     {
//  491         /* reallocate with realloc if available */
//  492         newbuffer = (unsigned char*)p->hooks.reallocate(p->buffer, newsize);
        ; Setup parameters for indirect call
        MOV     A,R6
        MOV     R4,A
        MOV     A,R7
        MOV     R5,A
        MOV     DPL,R2
        MOV     DPH,R3
        LCALL   ?Subroutine34 & 0xFFFF
??CrossCallReturnLabel_45:
        LCALL   ?Subroutine146 & 0xFFFF
??CrossCallReturnLabel_603:
        LCALL   ?CALL_IND
        MOV     ?V0 + 2,R2
        MOV     ?V0 + 3,R3
//  493         if (newbuffer == NULL)
        MOV     A,R2
        ORL     A,?V0 + 3
        JNZ     ??ensure_9
//  494         {
//  495             p->hooks.deallocate(p->buffer);
??ensure_10:
        ; Setup parameters for indirect call
        LCALL   ?Subroutine26 & 0xFFFF
??CrossCallReturnLabel_28:
        LCALL   ?CALL_IND
//  496             p->length = 0;
        MOV     DPL,?V0 + 0
        MOV     DPH,?V0 + 1
        INC     DPTR
        INC     DPTR
        CLR     A
        MOVX    @DPTR,A
        INC     DPTR
        LCALL   ??Subroutine161_0 & 0xFFFF
//  497             p->buffer = NULL;
//  498 
//  499             return NULL;
//  500         }
//  501     }
??CrossCallReturnLabel_245:
        MOVX    @DPTR,A
        INC     DPTR
        MOVX    @DPTR,A
        LJMP    ??ensure_0 & 0xFFFF
//  502     else
//  503     {
//  504         /* otherwise reallocate manually */
//  505         newbuffer = (unsigned char*)p->hooks.allocate(newsize);
??ensure_8:
        ; Setup parameters for indirect call
        MOV     A,R6
        MOV     R2,A
        MOV     A,R7
        MOV     R3,A
        LCALL   ?Subroutine80 & 0xFFFF
??CrossCallReturnLabel_133:
        LCALL   ??Subroutine162_0 & 0xFFFF
??CrossCallReturnLabel_252:
        LCALL   ?CALL_IND
        MOV     ?V0 + 2,R2
        MOV     ?V0 + 3,R3
//  506         if (!newbuffer)
        MOV     A,R2
        ORL     A,?V0 + 3
        JZ      ??ensure_10
//  507         {
//  508             p->hooks.deallocate(p->buffer);
//  509             p->length = 0;
//  510             p->buffer = NULL;
//  511 
//  512             return NULL;
//  513         }
//  514         
//  515         memcpy(newbuffer, p->buffer, p->offset + 1);
        ; Setup parameters for call to function memcpy
        MOV     DPL,?V0 + 0
        MOV     DPH,?V0 + 1
        INC     DPTR
        INC     DPTR
        INC     DPTR
        INC     DPTR
        MOVX    A,@DPTR
        ADD     A,#0x1
        MOV     ?V0 + 4,A
        INC     DPTR
        MOVX    A,@DPTR
        ADDC    A,#0x0
        MOV     ?V0 + 5,A
        MOV     R0,#?V0 + 4
        LCALL   ?PUSH_XSTACK_I_TWO
        CFI CFA_XSP16 add(XSP16, 16)
        MOV     DPL,?V0 + 0
        MOV     DPH,?V0 + 1
        LCALL   ?Subroutine36 & 0xFFFF
??CrossCallReturnLabel_49:
        LCALL   ?DEALLOC_XSTACK8
        CFI CFA_XSP16 add(XSP16, 14)
//  516         p->hooks.deallocate(p->buffer);
        ; Setup parameters for indirect call
        LCALL   ?Subroutine26 & 0xFFFF
//  517     }
??CrossCallReturnLabel_29:
        LCALL   ?CALL_IND
//  518     p->length = newsize;
??ensure_9:
        MOV     DPL,?V0 + 0
        MOV     DPH,?V0 + 1
        LCALL   ?Subroutine96 & 0xFFFF
//  519     p->buffer = newbuffer;
??CrossCallReturnLabel_243:
        MOV     A,?V0 + 2
        MOVX    @DPTR,A
        INC     DPTR
        MOV     A,?V0 + 3
        LCALL   ??Subroutine161_0 & 0xFFFF
//  520 
//  521     return newbuffer + p->offset;
??CrossCallReturnLabel_246:
        INC     DPTR
        INC     DPTR
        LCALL   ??Subroutine225_0 & 0xFFFF
??CrossCallReturnLabel_615:
        MOV     A,?V0 + 2
        ADD     A,R0
        MOV     R2,A
        MOV     A,?V0 + 3
??ensure_5:
        ADDC    A,R1
        MOV     R3,A
??ensure_2:
        LJMP    ??Subroutine189_0 & 0xFFFF
        CFI EndBlock cfiBlock47
//  522 }

        RSEG BANKED_CODE:CODE:NOROOT(0)
?Subroutine80:
        CFI Block cfiCond48 Using cfiCommon0
        CFI NoFunction
        CFI Conditional ??CrossCallReturnLabel_132
        CFI R6 load(1, XDATA, add(CFA_XSP16, literal(-20)))
        CFI VB load(1, XDATA, add(CFA_XSP16, literal(-19)))
        CFI V0 load(1, XDATA, add(CFA_XSP16, literal(-18)))
        CFI V1 load(1, XDATA, add(CFA_XSP16, literal(-17)))
        CFI V2 load(1, XDATA, add(CFA_XSP16, literal(-16)))
        CFI V3 load(1, XDATA, add(CFA_XSP16, literal(-15)))
        CFI V4 load(1, XDATA, add(CFA_XSP16, literal(-14)))
        CFI V5 load(1, XDATA, add(CFA_XSP16, literal(-13)))
        CFI V6 load(1, XDATA, add(CFA_XSP16, literal(-12)))
        CFI V7 load(1, XDATA, add(CFA_XSP16, literal(-11)))
        CFI V8 load(1, XDATA, add(CFA_XSP16, literal(-10)))
        CFI V9 load(1, XDATA, add(CFA_XSP16, literal(-9)))
        CFI V10 load(1, XDATA, add(CFA_XSP16, literal(-8)))
        CFI V11 load(1, XDATA, add(CFA_XSP16, literal(-7)))
        CFI R7 load(1, XDATA, add(CFA_XSP16, literal(-6)))
        CFI ?RET_LOW load(1, XDATA, add(CFA_XSP16, literal(-5)))
        CFI ?RET_HIGH load(1, XDATA, add(CFA_XSP16, literal(-4)))
        CFI ?BRET_EXT load(1, XDATA, add(CFA_XSP16, literal(-3)))
        CFI DPL0 load(1, XDATA, add(CFA_XSP16, literal(-2)))
        CFI DPH0 load(1, XDATA, add(CFA_XSP16, literal(-1)))
        CFI CFA_SP SP+0
        CFI CFA_XSP16 add(XSP16, 86)
        CFI Block cfiCond49 Using cfiCommon0
        CFI (cfiCond49) NoFunction
        CFI (cfiCond49) Conditional ??CrossCallReturnLabel_133
        CFI (cfiCond49) R6 load(1, XDATA, add(CFA_XSP16, literal(-14)))
        CFI (cfiCond49) VB load(1, XDATA, add(CFA_XSP16, literal(-13)))
        CFI (cfiCond49) V0 load(1, XDATA, add(CFA_XSP16, literal(-12)))
        CFI (cfiCond49) V1 load(1, XDATA, add(CFA_XSP16, literal(-11)))
        CFI (cfiCond49) V2 load(1, XDATA, add(CFA_XSP16, literal(-10)))
        CFI (cfiCond49) V3 load(1, XDATA, add(CFA_XSP16, literal(-9)))
        CFI (cfiCond49) V4 load(1, XDATA, add(CFA_XSP16, literal(-8)))
        CFI (cfiCond49) V5 load(1, XDATA, add(CFA_XSP16, literal(-7)))
        CFI (cfiCond49) R7 load(1, XDATA, add(CFA_XSP16, literal(-6)))
        CFI (cfiCond49) ?RET_LOW load(1, XDATA, add(CFA_XSP16, literal(-5)))
        CFI (cfiCond49) ?RET_HIGH load(1, XDATA, add(CFA_XSP16, literal(-4)))
        CFI (cfiCond49) ?BRET_EXT load(1, XDATA, add(CFA_XSP16, literal(-3)))
        CFI (cfiCond49) DPL0 load(1, XDATA, add(CFA_XSP16, literal(-2)))
        CFI (cfiCond49) DPH0 load(1, XDATA, add(CFA_XSP16, literal(-1)))
        CFI (cfiCond49) CFA_SP SP+0
        CFI (cfiCond49) CFA_XSP16 add(XSP16, 14)
        CFI Block cfiCond50 Using cfiCommon0
        CFI (cfiCond50) NoFunction
        CFI (cfiCond50) Conditional ??CrossCallReturnLabel_134
        CFI (cfiCond50) R6 load(1, XDATA, add(CFA_XSP16, literal(-18)))
        CFI (cfiCond50) VB load(1, XDATA, add(CFA_XSP16, literal(-17)))
        CFI (cfiCond50) V0 load(1, XDATA, add(CFA_XSP16, literal(-16)))
        CFI (cfiCond50) V1 load(1, XDATA, add(CFA_XSP16, literal(-15)))
        CFI (cfiCond50) V2 load(1, XDATA, add(CFA_XSP16, literal(-14)))
        CFI (cfiCond50) V3 load(1, XDATA, add(CFA_XSP16, literal(-13)))
        CFI (cfiCond50) V4 load(1, XDATA, add(CFA_XSP16, literal(-12)))
        CFI (cfiCond50) V5 load(1, XDATA, add(CFA_XSP16, literal(-11)))
        CFI (cfiCond50) V6 load(1, XDATA, add(CFA_XSP16, literal(-10)))
        CFI (cfiCond50) V7 load(1, XDATA, add(CFA_XSP16, literal(-9)))
        CFI (cfiCond50) V8 load(1, XDATA, add(CFA_XSP16, literal(-8)))
        CFI (cfiCond50) V9 load(1, XDATA, add(CFA_XSP16, literal(-7)))
        CFI (cfiCond50) R7 load(1, XDATA, add(CFA_XSP16, literal(-6)))
        CFI (cfiCond50) ?RET_LOW load(1, XDATA, add(CFA_XSP16, literal(-5)))
        CFI (cfiCond50) ?RET_HIGH load(1, XDATA, add(CFA_XSP16, literal(-4)))
        CFI (cfiCond50) ?BRET_EXT load(1, XDATA, add(CFA_XSP16, literal(-3)))
        CFI (cfiCond50) DPL0 load(1, XDATA, add(CFA_XSP16, literal(-2)))
        CFI (cfiCond50) DPH0 load(1, XDATA, add(CFA_XSP16, literal(-1)))
        CFI (cfiCond50) CFA_SP SP+0
        CFI (cfiCond50) CFA_XSP16 add(XSP16, 18)
        CFI Block cfiPicker51 Using cfiCommon1
        CFI (cfiPicker51) NoFunction
        CFI (cfiPicker51) Picker
        MOV     A,?V0 + 0
        ADD     A,#0xc
        LCALL   ?Subroutine139 & 0xFFFF
??CrossCallReturnLabel_649:
        RET
        CFI EndBlock cfiCond48
        CFI EndBlock cfiCond49
        CFI EndBlock cfiCond50
        CFI EndBlock cfiPicker51

        RSEG BANKED_CODE:CODE:NOROOT(0)
?Subroutine26:
        CFI Block cfiCond52 Using cfiCommon0
        CFI NoFunction
        CFI Conditional ??CrossCallReturnLabel_28
        CFI R6 load(1, XDATA, add(CFA_XSP16, literal(-14)))
        CFI VB load(1, XDATA, add(CFA_XSP16, literal(-13)))
        CFI V0 load(1, XDATA, add(CFA_XSP16, literal(-12)))
        CFI V1 load(1, XDATA, add(CFA_XSP16, literal(-11)))
        CFI V2 load(1, XDATA, add(CFA_XSP16, literal(-10)))
        CFI V3 load(1, XDATA, add(CFA_XSP16, literal(-9)))
        CFI V4 load(1, XDATA, add(CFA_XSP16, literal(-8)))
        CFI V5 load(1, XDATA, add(CFA_XSP16, literal(-7)))
        CFI R7 load(1, XDATA, add(CFA_XSP16, literal(-6)))
        CFI ?RET_LOW load(1, XDATA, add(CFA_XSP16, literal(-5)))
        CFI ?RET_HIGH load(1, XDATA, add(CFA_XSP16, literal(-4)))
        CFI ?BRET_EXT load(1, XDATA, add(CFA_XSP16, literal(-3)))
        CFI DPL0 load(1, XDATA, add(CFA_XSP16, literal(-2)))
        CFI DPH0 load(1, XDATA, add(CFA_XSP16, literal(-1)))
        CFI CFA_SP SP+0
        CFI CFA_XSP16 add(XSP16, 14)
        CFI Block cfiCond53 Using cfiCommon0
        CFI (cfiCond53) NoFunction
        CFI (cfiCond53) Conditional ??CrossCallReturnLabel_29
        CFI (cfiCond53) R6 load(1, XDATA, add(CFA_XSP16, literal(-14)))
        CFI (cfiCond53) VB load(1, XDATA, add(CFA_XSP16, literal(-13)))
        CFI (cfiCond53) V0 load(1, XDATA, add(CFA_XSP16, literal(-12)))
        CFI (cfiCond53) V1 load(1, XDATA, add(CFA_XSP16, literal(-11)))
        CFI (cfiCond53) V2 load(1, XDATA, add(CFA_XSP16, literal(-10)))
        CFI (cfiCond53) V3 load(1, XDATA, add(CFA_XSP16, literal(-9)))
        CFI (cfiCond53) V4 load(1, XDATA, add(CFA_XSP16, literal(-8)))
        CFI (cfiCond53) V5 load(1, XDATA, add(CFA_XSP16, literal(-7)))
        CFI (cfiCond53) R7 load(1, XDATA, add(CFA_XSP16, literal(-6)))
        CFI (cfiCond53) ?RET_LOW load(1, XDATA, add(CFA_XSP16, literal(-5)))
        CFI (cfiCond53) ?RET_HIGH load(1, XDATA, add(CFA_XSP16, literal(-4)))
        CFI (cfiCond53) ?BRET_EXT load(1, XDATA, add(CFA_XSP16, literal(-3)))
        CFI (cfiCond53) DPL0 load(1, XDATA, add(CFA_XSP16, literal(-2)))
        CFI (cfiCond53) DPH0 load(1, XDATA, add(CFA_XSP16, literal(-1)))
        CFI (cfiCond53) CFA_SP SP+0
        CFI (cfiCond53) CFA_XSP16 add(XSP16, 14)
        CFI Block cfiPicker54 Using cfiCommon1
        CFI (cfiPicker54) NoFunction
        CFI (cfiPicker54) Picker
        MOV     DPL,?V0 + 0
        MOV     DPH,?V0 + 1
        LCALL   ??Subroutine211_0 & 0xFFFF
??CrossCallReturnLabel_532:
        MOV     A,?V0 + 0
        ADD     A,#0xe
        LCALL   ?Subroutine139 & 0xFFFF
??CrossCallReturnLabel_647:
        LCALL   ?Subroutine126 & 0xFFFF
??CrossCallReturnLabel_275:
        RET
        CFI EndBlock cfiCond52
        CFI EndBlock cfiCond53
        CFI EndBlock cfiPicker54
//  523 
//  524 /* calculate the new length of the string in a printbuffer and update the offset */

        RSEG BANKED_CODE:CODE:NOROOT(0)
//  525 static void update_offset(printbuffer * const buffer)
update_offset:
        CFI Block cfiBlock55 Using cfiCommon0
        CFI Function update_offset
        CODE
//  526 {
        FUNCALL update_offset, strlen
        LOCFRAME ISTACK, 0, STACK
        LOCFRAME PSTACK, 0, STACK
        LOCFRAME XSTACK, 10, STACK
        LOCFRAME IOVERLAY, 0, STATIC
        LOCFRAME DOVERLAY, 0, STATIC
        ARGFRAME ISTACK, 0, STACK
        ARGFRAME PSTACK, 0, STACK
        ARGFRAME XSTACK, 10, STACK
        ARGFRAME IOVERLAY, 0, STATIC
        ARGFRAME DOVERLAY, 0, STATIC
        MOV     A,#-0xa
        LCALL   ?BANKED_ENTER_XDATA
        CFI DPH0 load(1, XDATA, add(CFA_XSP16, literal(-1)))
        CFI DPL0 load(1, XDATA, add(CFA_XSP16, literal(-2)))
        CFI ?BRET_EXT load(1, XDATA, add(CFA_XSP16, literal(-3)))
        CFI ?RET_HIGH load(1, XDATA, add(CFA_XSP16, literal(-4)))
        CFI ?RET_LOW load(1, XDATA, add(CFA_XSP16, literal(-5)))
        CFI R7 load(1, XDATA, add(CFA_XSP16, literal(-6)))
        CFI V1 load(1, XDATA, add(CFA_XSP16, literal(-7)))
        CFI V0 load(1, XDATA, add(CFA_XSP16, literal(-8)))
        CFI VB load(1, XDATA, add(CFA_XSP16, literal(-9)))
        CFI R6 load(1, XDATA, add(CFA_XSP16, literal(-10)))
        CFI CFA_SP SP+0
        CFI CFA_XSP16 add(XSP16, 10)
        ; Saved register size: 10
        ; Auto size: 0
//  527     const unsigned char *buffer_pointer = NULL;
//  528     if ((buffer == NULL) || (buffer->buffer == NULL))
        MOV     A,R2
        ORL     A,R3
        JZ      ??update_offset_0
        MOV     DPL,R2
        MOV     DPH,R3
        LCALL   ??Subroutine200_0 & 0xFFFF
??CrossCallReturnLabel_447:
        JZ      ??update_offset_0
//  529     {
//  530         return;
//  531     }
//  532     buffer_pointer = buffer->buffer + buffer->offset;
//  533 
//  534     buffer->offset += strlen((const char*)buffer_pointer);
        MOV     A,R2
        ADD     A,#0x4
        MOV     R0,A
        MOV     A,R3
        ADDC    A,#0x0
        MOV     R1,A
        MOV     A,R0
        MOV     R6,A
        MOV     A,R1
        MOV     R7,A
        ; Setup parameters for call to function strlen
        MOV     DPL,R6
        MOV     DPH,R7
        MOVX    A,@DPTR
        MOV     R0,A
        LCALL   ?Subroutine51 & 0xFFFF
??CrossCallReturnLabel_78:
        ADDC    A,R1
        MOV     R3,A
        LCALL   ??strlen?relay
        MOV     ?V0 + 0,R2
        MOV     ?V0 + 1,R3
        MOV     R0,?V0 + 0
        MOV     R1,?V0 + 1
        MOV     DPL,R6
        MOV     DPH,R7
        MOVX    A,@DPTR
        ADD     A,R0
        MOVX    @DPTR,A
        INC     DPTR
        MOVX    A,@DPTR
        ADDC    A,R1
        MOVX    @DPTR,A
//  535 }
??update_offset_0:
        LJMP    ??Subroutine160_0 & 0xFFFF
        CFI EndBlock cfiBlock55

        RSEG BANKED_CODE:CODE:NOROOT(0)
?Subroutine51:
        CFI Block cfiCond56 Using cfiCommon0
        CFI NoFunction
        CFI Conditional ??CrossCallReturnLabel_77
        CFI R6 load(1, XDATA, add(CFA_XSP16, literal(-14)))
        CFI VB load(1, XDATA, add(CFA_XSP16, literal(-13)))
        CFI V0 load(1, XDATA, add(CFA_XSP16, literal(-12)))
        CFI V1 load(1, XDATA, add(CFA_XSP16, literal(-11)))
        CFI V2 load(1, XDATA, add(CFA_XSP16, literal(-10)))
        CFI V3 load(1, XDATA, add(CFA_XSP16, literal(-9)))
        CFI V4 load(1, XDATA, add(CFA_XSP16, literal(-8)))
        CFI V5 load(1, XDATA, add(CFA_XSP16, literal(-7)))
        CFI R7 load(1, XDATA, add(CFA_XSP16, literal(-6)))
        CFI ?RET_LOW load(1, XDATA, add(CFA_XSP16, literal(-5)))
        CFI ?RET_HIGH load(1, XDATA, add(CFA_XSP16, literal(-4)))
        CFI ?BRET_EXT load(1, XDATA, add(CFA_XSP16, literal(-3)))
        CFI DPL0 load(1, XDATA, add(CFA_XSP16, literal(-2)))
        CFI DPH0 load(1, XDATA, add(CFA_XSP16, literal(-1)))
        CFI CFA_SP SP+0
        CFI CFA_XSP16 add(XSP16, 14)
        CFI Block cfiCond57 Using cfiCommon0
        CFI (cfiCond57) NoFunction
        CFI (cfiCond57) Conditional ??CrossCallReturnLabel_78
        CFI (cfiCond57) R6 load(1, XDATA, add(CFA_XSP16, literal(-10)))
        CFI (cfiCond57) VB load(1, XDATA, add(CFA_XSP16, literal(-9)))
        CFI (cfiCond57) V0 load(1, XDATA, add(CFA_XSP16, literal(-8)))
        CFI (cfiCond57) V1 load(1, XDATA, add(CFA_XSP16, literal(-7)))
        CFI (cfiCond57) R7 load(1, XDATA, add(CFA_XSP16, literal(-6)))
        CFI (cfiCond57) ?RET_LOW load(1, XDATA, add(CFA_XSP16, literal(-5)))
        CFI (cfiCond57) ?RET_HIGH load(1, XDATA, add(CFA_XSP16, literal(-4)))
        CFI (cfiCond57) ?BRET_EXT load(1, XDATA, add(CFA_XSP16, literal(-3)))
        CFI (cfiCond57) DPL0 load(1, XDATA, add(CFA_XSP16, literal(-2)))
        CFI (cfiCond57) DPH0 load(1, XDATA, add(CFA_XSP16, literal(-1)))
        CFI (cfiCond57) CFA_SP SP+0
        CFI (cfiCond57) CFA_XSP16 add(XSP16, 10)
        CFI Block cfiPicker58 Using cfiCommon1
        CFI (cfiPicker58) NoFunction
        CFI (cfiPicker58) Picker
        INC     DPTR
        MOVX    A,@DPTR
        MOV     R1,A
        MOV     DPL,R2
        MOV     DPH,R3
        MOVX    A,@DPTR
        ADD     A,R0
        MOV     R2,A
        INC     DPTR
        MOVX    A,@DPTR
        RET
        CFI EndBlock cfiCond56
        CFI EndBlock cfiCond57
        CFI EndBlock cfiPicker58
//  536 
//  537 /* securely comparison of floating-point variables */

        RSEG BANKED_CODE:CODE:NOROOT(0)
//  538 static cJSON_bool compare_double(double a, double b)
compare_double:
        CFI Block cfiBlock59 Using cfiCommon0
        CFI Function compare_double
        CODE
//  539 {
        MOV     A,#-0x18
        LCALL   ?BANKED_ENTER_XDATA
        CFI DPH0 load(1, XDATA, add(CFA_XSP16, literal(-1)))
        CFI DPL0 load(1, XDATA, add(CFA_XSP16, literal(-2)))
        CFI ?BRET_EXT load(1, XDATA, add(CFA_XSP16, literal(-3)))
        CFI ?RET_HIGH load(1, XDATA, add(CFA_XSP16, literal(-4)))
        CFI ?RET_LOW load(1, XDATA, add(CFA_XSP16, literal(-5)))
        CFI R7 load(1, XDATA, add(CFA_XSP16, literal(-6)))
        CFI V15 load(1, XDATA, add(CFA_XSP16, literal(-7)))
        CFI V14 load(1, XDATA, add(CFA_XSP16, literal(-8)))
        CFI V13 load(1, XDATA, add(CFA_XSP16, literal(-9)))
        CFI V12 load(1, XDATA, add(CFA_XSP16, literal(-10)))
        CFI V11 load(1, XDATA, add(CFA_XSP16, literal(-11)))
        CFI V10 load(1, XDATA, add(CFA_XSP16, literal(-12)))
        CFI V9 load(1, XDATA, add(CFA_XSP16, literal(-13)))
        CFI V8 load(1, XDATA, add(CFA_XSP16, literal(-14)))
        CFI V7 load(1, XDATA, add(CFA_XSP16, literal(-15)))
        CFI V6 load(1, XDATA, add(CFA_XSP16, literal(-16)))
        CFI V5 load(1, XDATA, add(CFA_XSP16, literal(-17)))
        CFI V4 load(1, XDATA, add(CFA_XSP16, literal(-18)))
        CFI V3 load(1, XDATA, add(CFA_XSP16, literal(-19)))
        CFI V2 load(1, XDATA, add(CFA_XSP16, literal(-20)))
        CFI V1 load(1, XDATA, add(CFA_XSP16, literal(-21)))
        CFI V0 load(1, XDATA, add(CFA_XSP16, literal(-22)))
        CFI VB load(1, XDATA, add(CFA_XSP16, literal(-23)))
        CFI R6 load(1, XDATA, add(CFA_XSP16, literal(-24)))
        CFI CFA_SP SP+0
        CFI CFA_XSP16 add(XSP16, 24)
        ; Saved register size: 24
        ; Auto size: 0
        MOV     ?V0 + 0,R2
        MOV     ?V0 + 1,R3
        MOV     ?V0 + 2,R4
        MOV     ?V0 + 3,R5
        MOV     A,#0x18
        LCALL   ?XSTACK_DISP0_8
        MOV     R0,#?V0 + 4
        LCALL   ?L_MOV_X
//  540     double maxVal = fabs(a) > fabs(b) ? fabs(a) : fabs(b);
        MOV     ?V0 + 8,?V0 + 4
        MOV     ?V0 + 9,?V0 + 5
        MOV     ?V0 + 10,?V0 + 6
        MOV     ?V0 + 11,?V0 + 7
        MOV     A,?V0 + 11
        CLR     0xE0 /* A   */.7
        MOV     ?V0 + 11,A
        MOV     ?V0 + 12,R2
        MOV     ?V0 + 13,R3
        MOV     ?V0 + 14,R4
        MOV     A,R5
        CLR     0xE0 /* A   */.7
        MOV     ?V0 + 15,A
        MOV     R0,#?V0 + 8
        MOV     R1,#?V0 + 12
        LCALL   ?FLT_LT
        JNC     ??compare_double_0
        MOV     ?V0 + 8,R2
        MOV     ?V0 + 9,R3
        MOV     ?V0 + 10,R4
        MOV     A,R5
        SJMP    ??compare_double_1
??compare_double_0:
        MOV     ?V0 + 11,?V0 + 7
        MOV     A,?V0 + 11
??compare_double_1:
        CLR     0xE0 /* A   */.7
        MOV     ?V0 + 11,A
//  541     return (fabs(a - b) <= maxVal * DBL_EPSILON);
        MOV     DPTR,#__Constant_34000000
        MOV     R0,#?V0 + 12
        LCALL   ?L_MOV_X
        MOV     R0,#?V0 + 8
        MOV     R1,#?V0 + 12
        LCALL   ?FLT_MUL
        MOV     R0,#?V0 + 0
        MOV     R1,#?V0 + 4
        LCALL   ?FLT_SUB
        MOV     A,?V0 + 3
        CLR     0xE0 /* A   */.7
        MOV     ?V0 + 3,A
        MOV     R0,#?V0 + 8
        MOV     R1,#?V0 + 0
        LCALL   ?FLT_GE
        JNC     ??compare_double_2
        SETB    B.0
        SJMP    ??compare_double_3
??compare_double_2:
        CLR     B.0
??compare_double_3:
        MOV     C,B.0
        CLR     A
        RLC     A
        MOV     R2,A
        MOV     R3,#0x0
        MOV     R7,#0x10
        LJMP    ?BANKED_LEAVE_XDATA
        CFI EndBlock cfiBlock59
//  542 }
//  543 
//  544 /* Render the number nicely from the given item into a string. */

        RSEG BANKED_CODE:CODE:NOROOT(0)
//  545 static cJSON_bool print_number(const cJSON * const item, printbuffer * const output_buffer)
print_number:
        CFI Block cfiBlock60 Using cfiCommon0
        CFI Function print_number
        CODE
//  546 {
        FUNCALL print_number, sprintf
        LOCFRAME ISTACK, 0, STACK
        LOCFRAME PSTACK, 0, STACK
        LOCFRAME XSTACK, 46, STACK
        LOCFRAME IOVERLAY, 0, STATIC
        LOCFRAME DOVERLAY, 0, STATIC
        ARGFRAME ISTACK, 0, STACK
        ARGFRAME PSTACK, 0, STACK
        ARGFRAME XSTACK, 46, STACK
        ARGFRAME IOVERLAY, 0, STATIC
        ARGFRAME DOVERLAY, 0, STATIC
        FUNCALL print_number, sprintf
        LOCFRAME ISTACK, 0, STACK
        LOCFRAME PSTACK, 0, STACK
        LOCFRAME XSTACK, 50, STACK
        LOCFRAME IOVERLAY, 0, STATIC
        LOCFRAME DOVERLAY, 0, STATIC
        ARGFRAME ISTACK, 0, STACK
        ARGFRAME PSTACK, 0, STACK
        ARGFRAME XSTACK, 50, STACK
        ARGFRAME IOVERLAY, 0, STATIC
        ARGFRAME DOVERLAY, 0, STATIC
        FUNCALL print_number, sscanf
        LOCFRAME ISTACK, 0, STACK
        LOCFRAME PSTACK, 0, STACK
        LOCFRAME XSTACK, 48, STACK
        LOCFRAME IOVERLAY, 0, STATIC
        LOCFRAME DOVERLAY, 0, STATIC
        ARGFRAME ISTACK, 0, STACK
        ARGFRAME PSTACK, 0, STACK
        ARGFRAME XSTACK, 48, STACK
        ARGFRAME IOVERLAY, 0, STATIC
        ARGFRAME DOVERLAY, 0, STATIC
        FUNCALL print_number, compare_double
        LOCFRAME ISTACK, 0, STACK
        LOCFRAME PSTACK, 0, STACK
        LOCFRAME XSTACK, 50, STACK
        LOCFRAME IOVERLAY, 0, STATIC
        LOCFRAME DOVERLAY, 0, STATIC
        ARGFRAME ISTACK, 0, STACK
        ARGFRAME PSTACK, 0, STACK
        ARGFRAME XSTACK, 50, STACK
        ARGFRAME IOVERLAY, 0, STATIC
        ARGFRAME DOVERLAY, 0, STATIC
        FUNCALL print_number, sprintf
        LOCFRAME ISTACK, 0, STACK
        LOCFRAME PSTACK, 0, STACK
        LOCFRAME XSTACK, 50, STACK
        LOCFRAME IOVERLAY, 0, STATIC
        LOCFRAME DOVERLAY, 0, STATIC
        ARGFRAME ISTACK, 0, STACK
        ARGFRAME PSTACK, 0, STACK
        ARGFRAME XSTACK, 50, STACK
        ARGFRAME IOVERLAY, 0, STATIC
        ARGFRAME DOVERLAY, 0, STATIC
        FUNCALL print_number, ensure
        LOCFRAME ISTACK, 0, STACK
        LOCFRAME PSTACK, 0, STACK
        LOCFRAME XSTACK, 46, STACK
        LOCFRAME IOVERLAY, 0, STATIC
        LOCFRAME DOVERLAY, 0, STATIC
        ARGFRAME ISTACK, 0, STACK
        ARGFRAME PSTACK, 0, STACK
        ARGFRAME XSTACK, 46, STACK
        ARGFRAME IOVERLAY, 0, STATIC
        ARGFRAME DOVERLAY, 0, STATIC
        MOV     A,#-0x10
        LCALL   ?BANKED_ENTER_XDATA
        CFI DPH0 load(1, XDATA, add(CFA_XSP16, literal(-1)))
        CFI DPL0 load(1, XDATA, add(CFA_XSP16, literal(-2)))
        CFI ?BRET_EXT load(1, XDATA, add(CFA_XSP16, literal(-3)))
        CFI ?RET_HIGH load(1, XDATA, add(CFA_XSP16, literal(-4)))
        CFI ?RET_LOW load(1, XDATA, add(CFA_XSP16, literal(-5)))
        CFI R7 load(1, XDATA, add(CFA_XSP16, literal(-6)))
        CFI V7 load(1, XDATA, add(CFA_XSP16, literal(-7)))
        CFI V6 load(1, XDATA, add(CFA_XSP16, literal(-8)))
        CFI V5 load(1, XDATA, add(CFA_XSP16, literal(-9)))
        CFI V4 load(1, XDATA, add(CFA_XSP16, literal(-10)))
        CFI V3 load(1, XDATA, add(CFA_XSP16, literal(-11)))
        CFI V2 load(1, XDATA, add(CFA_XSP16, literal(-12)))
        CFI V1 load(1, XDATA, add(CFA_XSP16, literal(-13)))
        CFI V0 load(1, XDATA, add(CFA_XSP16, literal(-14)))
        CFI VB load(1, XDATA, add(CFA_XSP16, literal(-15)))
        CFI R6 load(1, XDATA, add(CFA_XSP16, literal(-16)))
        CFI CFA_SP SP+0
        CFI CFA_XSP16 add(XSP16, 16)
        ; Saved register size: 16
        ; Auto size: 30
        MOV     A,#-0x1e
        LCALL   ?ALLOC_XSTACK8
        CFI CFA_XSP16 add(XSP16, 46)
        MOV     A,R4
        MOV     R6,A
        MOV     A,R5
        MOV     R7,A
//  547     unsigned char *output_pointer = NULL;
//  548     double d = item->valuedouble;
        LCALL   ?Subroutine82 & 0xFFFF
??CrossCallReturnLabel_138:
        MOV     R0,#?V0 + 4
        LCALL   ?L_MOV_X
//  549     int length = 0;
//  550     size_t i = 0;
//  551     unsigned char number_buffer[26] = {0}; /* temporary buffer to print the number into */
        MOV     A,#0x4
        LCALL   ?XSTACK_DISP0_8
        MOV     R4,DPL
        MOV     R5,DPH
        MOV     DPH,#(`?<Constant {0}>` >> 8) & 0xff
        MOV     DPL,#`?<Constant {0}>` & 0xff
        MOV     A,#0x1a
        LCALL   ?MOVE_LONG8_XDATA_XDATA
//  552     unsigned char decimal_point = get_decimal_point();
//  553     double test = 0.0;
        MOV     DPTR,#__Constant_0
        LCALL   ?XLOAD_R2345
        MOV     DPL,?XSP + 0
        MOV     DPH,?XSP + 1
        LCALL   ?XSTORE_R2345
//  554 
//  555     if (output_buffer == NULL)
        MOV     A,R6
        ORL     A,R7
        JNZ     ??print_number_0
//  556     {
//  557         return false;
??print_number_1:
        MOV     R2,#0x0
        LJMP    ??print_number_2 & 0xFFFF
//  558     }
//  559 
//  560     /* This checks for NaN and Infinity */
//  561     if (isnan(d) || isinf(d))
??print_number_0:
        MOV     R0,#?V0 + 4
        MOV     R1,#?V0 + 4
        LCALL   ?FLT_EQ
        JNZ     ??print_number_3
        MOV     ?V0 + 0,?V0 + 4
        MOV     ?V0 + 1,?V0 + 5
        MOV     ?V0 + 2,?V0 + 6
        MOV     ?V0 + 3,?V0 + 7
        MOV     R0,#?V0 + 0
        MOV     R1,#?V0 + 4
        LCALL   ?FLT_SUB
        MOV     R0,#?V0 + 0
        MOV     R1,#?V0 + 0
        LCALL   ?FLT_EQ
        JZ      ??print_number_4
//  562     {
//  563         length = sprintf((char*)number_buffer, "null");
??print_number_3:
        ; Setup parameters for call to function sprintf
        MOV     R4,#`?<Constant "null">` & 0xff
        MOV     R5,#(`?<Constant "null">` >> 8) & 0xff
        MOV     A,#0x4
        LCALL   ?XSTACK_DISP0_8
        MOV     R2,DPL
        MOV     R3,DPH
        LCALL   ??sprintf?relay
        LJMP    ??print_number_5 & 0xFFFF
//  564     }
//  565     else
//  566     {
//  567         /* Try 15 decimal places of precision to avoid nonsignificant nonzero digits */
//  568         length = sprintf((char*)number_buffer, "%1.15g", d);
??print_number_4:
        ; Setup parameters for call to function sprintf
        MOV     R0,#?V0 + 4
        LCALL   ?PUSH_XSTACK_I_FOUR
        CFI CFA_XSP16 add(XSP16, 50)
        MOV     R4,#`?<Constant "%1.15g">` & 0xff
        MOV     R5,#(`?<Constant "%1.15g">` >> 8) & 0xff
        MOV     A,#0x8
        LCALL   ?XSTACK_DISP0_8
        MOV     R2,DPL
        MOV     R3,DPH
        LCALL   ??sprintf?relay
        MOV     A,#0x4
        LCALL   ?DEALLOC_XSTACK8
        CFI CFA_XSP16 add(XSP16, 46)
        MOV     ?V0 + 0,R2
        MOV     ?V0 + 1,R3
//  569 
//  570         /* Check whether the original double can be recovered */
//  571         if ((sscanf((char*)number_buffer, "%lg", &test) != 1) || !compare_double((double)test, d))
        ; Setup parameters for call to function sscanf
        MOV     DPL,?XSP + 0
        MOV     DPH,?XSP + 1
        MOV     ?V0 + 2,DPL
        MOV     ?V0 + 3,DPH
        MOV     R0,#?V0 + 2
        LCALL   ?PUSH_XSTACK_I_TWO
        CFI CFA_XSP16 add(XSP16, 48)
        MOV     R4,#`?<Constant "%lg">` & 0xff
        MOV     R5,#(`?<Constant "%lg">` >> 8) & 0xff
        MOV     A,#0x6
        LCALL   ?XSTACK_DISP0_8
        MOV     R2,DPL
        MOV     R3,DPH
        LCALL   ??sscanf?relay
        MOV     A,#0x2
        LCALL   ?DEALLOC_XSTACK8
        CFI CFA_XSP16 add(XSP16, 46)
        MOV     ?V0 + 2,R2
        MOV     A,#0x1
        XRL     A,?V0 + 2
        JNZ     ??print_number_6
        MOV     A,R3
??print_number_6:
        JNZ     ??print_number_7
        ; Setup parameters for call to function compare_double
        MOV     R0,#?V0 + 4
        LCALL   ?PUSH_XSTACK_I_FOUR
        CFI CFA_XSP16 add(XSP16, 50)
        MOV     A,#0x4
        LCALL   ?XSTACK_DISP0_8
        LCALL   ?XLOAD_R2345
        LCALL   ??compare_double?relay
        MOV     A,#0x4
        LCALL   ?DEALLOC_XSTACK8
        CFI CFA_XSP16 add(XSP16, 46)
        MOV     ?V0 + 3,R3
        MOV     A,R2
        ORL     A,?V0 + 3
        JNZ     ??print_number_8
//  572         {
//  573             /* If not, print with 17 decimal places of precision */
//  574             length = sprintf((char*)number_buffer, "%1.17g", d);
??print_number_7:
        ; Setup parameters for call to function sprintf
        MOV     R0,#?V0 + 4
        LCALL   ?PUSH_XSTACK_I_FOUR
        CFI CFA_XSP16 add(XSP16, 50)
        MOV     R4,#`?<Constant "%1.17g">` & 0xff
        MOV     R5,#(`?<Constant "%1.17g">` >> 8) & 0xff
        MOV     A,#0x8
        LCALL   ?XSTACK_DISP0_8
        MOV     R2,DPL
        MOV     R3,DPH
        LCALL   ??sprintf?relay
        MOV     A,#0x4
        LCALL   ?DEALLOC_XSTACK8
        CFI CFA_XSP16 add(XSP16, 46)
??print_number_5:
        MOV     ?V0 + 0,R2
        MOV     ?V0 + 1,R3
//  575         }
//  576     }
//  577 
//  578     /* sprintf failed or buffer overrun occurred */
//  579     if ((length < 0) || (length > (int)(sizeof(number_buffer) - 1)))
??print_number_8:
        CLR     C
        MOV     A,?V0 + 0
        SUBB    A,#0x1a
        MOV     A,?V0 + 1
        SUBB    A,#0x0
        JC      $+5
        LJMP    ??print_number_1 & 0xFFFF
//  580     {
//  581         return false;
//  582     }
//  583 
//  584     /* reserve appropriate space in the output */
//  585     output_pointer = ensure(output_buffer, (size_t)length + sizeof(""));
        ; Setup parameters for call to function ensure
        MOV     A,?V0 + 0
        ADD     A,#0x1
        MOV     R4,A
        MOV     A,?V0 + 1
        ADDC    A,#0x0
        MOV     R5,A
        LCALL   ??Subroutine169_0 & 0xFFFF
//  586     if (output_pointer == NULL)
??CrossCallReturnLabel_303:
        JNZ     $+5
        LJMP    ??print_number_1 & 0xFFFF
//  587     {
//  588         return false;
//  589     }
//  590 
//  591     /* copy the printed number to the output and replace locale
//  592      * dependent decimal point with '.' */
//  593     for (i = 0; i < ((size_t)length); i++)
        MOV     R0,#0x0
        MOV     R1,#0x0
        SJMP    ??CrossCallReturnLabel_224
//  594     {
//  595         if (number_buffer[i] == decimal_point)
//  596         {
//  597             output_pointer[i] = '.';
//  598             continue;
//  599         }
//  600 
//  601         output_pointer[i] = number_buffer[i];
??print_number_9:
        MOV     A,#0x4
        LCALL   ?XSTACK_DISP0_8
        LCALL   ?Subroutine77 & 0xFFFF
??CrossCallReturnLabel_118:
        PUSH    A
        CFI CFA_SP SP+-1
        LCALL   ?Subroutine76 & 0xFFFF
??CrossCallReturnLabel_115:
        POP     A
        CFI CFA_SP SP+0
??print_number_10:
        LCALL   ?Subroutine88 & 0xFFFF
??CrossCallReturnLabel_224:
        CLR     C
        MOV     A,R0
        SUBB    A,?V0 + 0
        MOV     A,R1
        SUBB    A,?V0 + 1
        JNC     ??print_number_11
        MOV     A,#0x4
        LCALL   ?XSTACK_DISP0_8
        LCALL   ?Subroutine77 & 0xFFFF
??CrossCallReturnLabel_119:
        XRL     A,#0x2e
        JNZ     ??print_number_9
        LCALL   ?Subroutine76 & 0xFFFF
//  602     }
??CrossCallReturnLabel_116:
        MOV     A,#0x2e
        SJMP    ??print_number_10
//  603     output_pointer[i] = '\0';
??print_number_11:
        LCALL   ?Subroutine76 & 0xFFFF
??CrossCallReturnLabel_117:
        LCALL   ??Subroutine177_0 & 0xFFFF
//  604 
//  605     output_buffer->offset += (size_t)length;
??CrossCallReturnLabel_340:
        ADD     A,?V0 + 0
        MOVX    @DPTR,A
        INC     DPTR
        MOVX    A,@DPTR
        ADDC    A,?V0 + 1
        MOVX    @DPTR,A
//  606 
//  607     return true;
        MOV     R2,#0x1
??print_number_2:
        MOV     R3,#0x0
        MOV     A,#0x1e
        LJMP    ?Subroutine2 & 0xFFFF
        CFI EndBlock cfiBlock60
//  608 }

        RSEG BANKED_CODE:CODE:NOROOT(0)
?Subroutine77:
        CFI Block cfiCond61 Using cfiCommon0
        CFI NoFunction
        CFI Conditional ??CrossCallReturnLabel_118
        CFI R6 load(1, XDATA, add(CFA_XSP16, literal(-16)))
        CFI VB load(1, XDATA, add(CFA_XSP16, literal(-15)))
        CFI V0 load(1, XDATA, add(CFA_XSP16, literal(-14)))
        CFI V1 load(1, XDATA, add(CFA_XSP16, literal(-13)))
        CFI V2 load(1, XDATA, add(CFA_XSP16, literal(-12)))
        CFI V3 load(1, XDATA, add(CFA_XSP16, literal(-11)))
        CFI V4 load(1, XDATA, add(CFA_XSP16, literal(-10)))
        CFI V5 load(1, XDATA, add(CFA_XSP16, literal(-9)))
        CFI V6 load(1, XDATA, add(CFA_XSP16, literal(-8)))
        CFI V7 load(1, XDATA, add(CFA_XSP16, literal(-7)))
        CFI R7 load(1, XDATA, add(CFA_XSP16, literal(-6)))
        CFI ?RET_LOW load(1, XDATA, add(CFA_XSP16, literal(-5)))
        CFI ?RET_HIGH load(1, XDATA, add(CFA_XSP16, literal(-4)))
        CFI ?BRET_EXT load(1, XDATA, add(CFA_XSP16, literal(-3)))
        CFI DPL0 load(1, XDATA, add(CFA_XSP16, literal(-2)))
        CFI DPH0 load(1, XDATA, add(CFA_XSP16, literal(-1)))
        CFI CFA_SP SP+0
        CFI CFA_XSP16 add(XSP16, 46)
        CFI Block cfiCond62 Using cfiCommon0
        CFI (cfiCond62) NoFunction
        CFI (cfiCond62) Conditional ??CrossCallReturnLabel_119
        CFI (cfiCond62) R6 load(1, XDATA, add(CFA_XSP16, literal(-16)))
        CFI (cfiCond62) VB load(1, XDATA, add(CFA_XSP16, literal(-15)))
        CFI (cfiCond62) V0 load(1, XDATA, add(CFA_XSP16, literal(-14)))
        CFI (cfiCond62) V1 load(1, XDATA, add(CFA_XSP16, literal(-13)))
        CFI (cfiCond62) V2 load(1, XDATA, add(CFA_XSP16, literal(-12)))
        CFI (cfiCond62) V3 load(1, XDATA, add(CFA_XSP16, literal(-11)))
        CFI (cfiCond62) V4 load(1, XDATA, add(CFA_XSP16, literal(-10)))
        CFI (cfiCond62) V5 load(1, XDATA, add(CFA_XSP16, literal(-9)))
        CFI (cfiCond62) V6 load(1, XDATA, add(CFA_XSP16, literal(-8)))
        CFI (cfiCond62) V7 load(1, XDATA, add(CFA_XSP16, literal(-7)))
        CFI (cfiCond62) R7 load(1, XDATA, add(CFA_XSP16, literal(-6)))
        CFI (cfiCond62) ?RET_LOW load(1, XDATA, add(CFA_XSP16, literal(-5)))
        CFI (cfiCond62) ?RET_HIGH load(1, XDATA, add(CFA_XSP16, literal(-4)))
        CFI (cfiCond62) ?BRET_EXT load(1, XDATA, add(CFA_XSP16, literal(-3)))
        CFI (cfiCond62) DPL0 load(1, XDATA, add(CFA_XSP16, literal(-2)))
        CFI (cfiCond62) DPH0 load(1, XDATA, add(CFA_XSP16, literal(-1)))
        CFI (cfiCond62) CFA_SP SP+0
        CFI (cfiCond62) CFA_XSP16 add(XSP16, 46)
        CFI Block cfiPicker63 Using cfiCommon1
        CFI (cfiPicker63) NoFunction
        CFI (cfiPicker63) Picker
        LCALL   ?Subroutine138 & 0xFFFF
??CrossCallReturnLabel_213:
        MOVX    A,@DPTR
        RET
        CFI EndBlock cfiCond61
        CFI EndBlock cfiCond62
        CFI EndBlock cfiPicker63

        RSEG BANKED_CODE:CODE:NOROOT(0)
?Subroutine76:
        CFI Block cfiCond64 Using cfiCommon0
        CFI NoFunction
        CFI Conditional ??CrossCallReturnLabel_115
        CFI R6 load(1, XDATA, add(CFA_XSP16, literal(-16)))
        CFI VB load(1, XDATA, add(CFA_XSP16, literal(-15)))
        CFI V0 load(1, XDATA, add(CFA_XSP16, literal(-14)))
        CFI V1 load(1, XDATA, add(CFA_XSP16, literal(-13)))
        CFI V2 load(1, XDATA, add(CFA_XSP16, literal(-12)))
        CFI V3 load(1, XDATA, add(CFA_XSP16, literal(-11)))
        CFI V4 load(1, XDATA, add(CFA_XSP16, literal(-10)))
        CFI V5 load(1, XDATA, add(CFA_XSP16, literal(-9)))
        CFI V6 load(1, XDATA, add(CFA_XSP16, literal(-8)))
        CFI V7 load(1, XDATA, add(CFA_XSP16, literal(-7)))
        CFI R7 load(1, XDATA, add(CFA_XSP16, literal(-6)))
        CFI ?RET_LOW load(1, XDATA, add(CFA_XSP16, literal(-5)))
        CFI ?RET_HIGH load(1, XDATA, add(CFA_XSP16, literal(-4)))
        CFI ?BRET_EXT load(1, XDATA, add(CFA_XSP16, literal(-3)))
        CFI DPL0 load(1, XDATA, add(CFA_XSP16, literal(-2)))
        CFI DPH0 load(1, XDATA, add(CFA_XSP16, literal(-1)))
        CFI CFA_SP SP+-1
        CFI CFA_XSP16 add(XSP16, 46)
        CFI Block cfiCond65 Using cfiCommon0
        CFI (cfiCond65) NoFunction
        CFI (cfiCond65) Conditional ??CrossCallReturnLabel_116
        CFI (cfiCond65) R6 load(1, XDATA, add(CFA_XSP16, literal(-16)))
        CFI (cfiCond65) VB load(1, XDATA, add(CFA_XSP16, literal(-15)))
        CFI (cfiCond65) V0 load(1, XDATA, add(CFA_XSP16, literal(-14)))
        CFI (cfiCond65) V1 load(1, XDATA, add(CFA_XSP16, literal(-13)))
        CFI (cfiCond65) V2 load(1, XDATA, add(CFA_XSP16, literal(-12)))
        CFI (cfiCond65) V3 load(1, XDATA, add(CFA_XSP16, literal(-11)))
        CFI (cfiCond65) V4 load(1, XDATA, add(CFA_XSP16, literal(-10)))
        CFI (cfiCond65) V5 load(1, XDATA, add(CFA_XSP16, literal(-9)))
        CFI (cfiCond65) V6 load(1, XDATA, add(CFA_XSP16, literal(-8)))
        CFI (cfiCond65) V7 load(1, XDATA, add(CFA_XSP16, literal(-7)))
        CFI (cfiCond65) R7 load(1, XDATA, add(CFA_XSP16, literal(-6)))
        CFI (cfiCond65) ?RET_LOW load(1, XDATA, add(CFA_XSP16, literal(-5)))
        CFI (cfiCond65) ?RET_HIGH load(1, XDATA, add(CFA_XSP16, literal(-4)))
        CFI (cfiCond65) ?BRET_EXT load(1, XDATA, add(CFA_XSP16, literal(-3)))
        CFI (cfiCond65) DPL0 load(1, XDATA, add(CFA_XSP16, literal(-2)))
        CFI (cfiCond65) DPH0 load(1, XDATA, add(CFA_XSP16, literal(-1)))
        CFI (cfiCond65) CFA_SP SP+0
        CFI (cfiCond65) CFA_XSP16 add(XSP16, 46)
        CFI Block cfiCond66 Using cfiCommon0
        CFI (cfiCond66) NoFunction
        CFI (cfiCond66) Conditional ??CrossCallReturnLabel_117
        CFI (cfiCond66) R6 load(1, XDATA, add(CFA_XSP16, literal(-16)))
        CFI (cfiCond66) VB load(1, XDATA, add(CFA_XSP16, literal(-15)))
        CFI (cfiCond66) V0 load(1, XDATA, add(CFA_XSP16, literal(-14)))
        CFI (cfiCond66) V1 load(1, XDATA, add(CFA_XSP16, literal(-13)))
        CFI (cfiCond66) V2 load(1, XDATA, add(CFA_XSP16, literal(-12)))
        CFI (cfiCond66) V3 load(1, XDATA, add(CFA_XSP16, literal(-11)))
        CFI (cfiCond66) V4 load(1, XDATA, add(CFA_XSP16, literal(-10)))
        CFI (cfiCond66) V5 load(1, XDATA, add(CFA_XSP16, literal(-9)))
        CFI (cfiCond66) V6 load(1, XDATA, add(CFA_XSP16, literal(-8)))
        CFI (cfiCond66) V7 load(1, XDATA, add(CFA_XSP16, literal(-7)))
        CFI (cfiCond66) R7 load(1, XDATA, add(CFA_XSP16, literal(-6)))
        CFI (cfiCond66) ?RET_LOW load(1, XDATA, add(CFA_XSP16, literal(-5)))
        CFI (cfiCond66) ?RET_HIGH load(1, XDATA, add(CFA_XSP16, literal(-4)))
        CFI (cfiCond66) ?BRET_EXT load(1, XDATA, add(CFA_XSP16, literal(-3)))
        CFI (cfiCond66) DPL0 load(1, XDATA, add(CFA_XSP16, literal(-2)))
        CFI (cfiCond66) DPH0 load(1, XDATA, add(CFA_XSP16, literal(-1)))
        CFI (cfiCond66) CFA_SP SP+0
        CFI (cfiCond66) CFA_XSP16 add(XSP16, 46)
        CFI Block cfiPicker67 Using cfiCommon1
        CFI (cfiPicker67) NoFunction
        CFI (cfiPicker67) Picker
        MOV     A,R2
        ADD     A,R0
        MOV     DPL,A
        MOV     A,R3
        ADDC    A,R1
        MOV     DPH,A
        RET
        CFI EndBlock cfiCond64
        CFI EndBlock cfiCond65
        CFI EndBlock cfiCond66
        CFI EndBlock cfiPicker67
//  609 
//  610 /* parse 4 digit hexadecimal number */

        RSEG BANKED_CODE:CODE:NOROOT(0)
//  611 static unsigned parse_hex4(const unsigned char * const input)
parse_hex4:
        CFI Block cfiBlock68 Using cfiCommon0
        CFI Function parse_hex4
        CODE
//  612 {
        MOV     A,#-0xa
        LCALL   ?BANKED_ENTER_XDATA
        CFI DPH0 load(1, XDATA, add(CFA_XSP16, literal(-1)))
        CFI DPL0 load(1, XDATA, add(CFA_XSP16, literal(-2)))
        CFI ?BRET_EXT load(1, XDATA, add(CFA_XSP16, literal(-3)))
        CFI ?RET_HIGH load(1, XDATA, add(CFA_XSP16, literal(-4)))
        CFI ?RET_LOW load(1, XDATA, add(CFA_XSP16, literal(-5)))
        CFI R7 load(1, XDATA, add(CFA_XSP16, literal(-6)))
        CFI V1 load(1, XDATA, add(CFA_XSP16, literal(-7)))
        CFI V0 load(1, XDATA, add(CFA_XSP16, literal(-8)))
        CFI VB load(1, XDATA, add(CFA_XSP16, literal(-9)))
        CFI R6 load(1, XDATA, add(CFA_XSP16, literal(-10)))
        CFI CFA_SP SP+0
        CFI CFA_XSP16 add(XSP16, 10)
        ; Saved register size: 10
        ; Auto size: 0
//  613     unsigned int h = 0;
        MOV     R0,#0x0
        MOV     R1,#0x0
//  614     size_t i = 0;
//  615 
//  616     for (i = 0; i < 4; i++)
        MOV     R4,#0x0
        MOV     R5,#0x0
//  617     {
//  618         /* parse digit */
//  619         if ((input[i] >= '0') && (input[i] <= '9'))
??parse_hex4_0:
        MOV     A,R2
        ADD     A,R4
        MOV     DPL,A
        MOV     A,R3
        ADDC    A,R5
        MOV     DPH,A
        MOVX    A,@DPTR
        ADD     A,#-0x30
        CLR     C
        SUBB    A,#0xa
        MOVX    A,@DPTR
        JNC     ??parse_hex4_1
//  620         {
//  621             h += (unsigned int) input[i] - '0';
        ADD     A,#-0x30
??parse_hex4_2:
        MOV     R6,A
        CLR     A
        ADDC    A,#-0x1
        MOV     R7,A
        MOV     A,R0
        ADD     A,R6
        MOV     R0,A
        MOV     A,R1
        ADDC    A,R7
        MOV     R1,A
//  622         }
//  623         else if ((input[i] >= 'A') && (input[i] <= 'F'))
//  624         {
//  625             h += (unsigned int) 10 + input[i] - 'A';
//  626         }
//  627         else if ((input[i] >= 'a') && (input[i] <= 'f'))
//  628         {
//  629             h += (unsigned int) 10 + input[i] - 'a';
//  630         }
//  631         else /* invalid */
//  632         {
//  633             return 0;
//  634         }
//  635 
//  636         if (i < 3)
        CLR     C
        MOV     A,R4
        SUBB    A,#0x3
        MOV     A,R5
        SUBB    A,#0x0
        JNC     ??parse_hex4_3
//  637         {
//  638             /* shift left to make place for the next nibble */
//  639             h = h << 4;
        MOV     ?V0 + 0,R0
        MOV     ?V0 + 1,R1
        MOV     A,#0x4
        MOV     R0,#?V0 + 0
        LCALL   ?S_SHL
        MOV     R0,?V0 + 0
        MOV     R1,?V0 + 1
//  640         }
??parse_hex4_3:
        LCALL   ??Subroutine180_0 & 0xFFFF
??CrossCallReturnLabel_367:
        CLR     C
        MOV     A,R4
        SUBB    A,#0x4
        MOV     A,R5
        SUBB    A,#0x0
        JC      ??parse_hex4_0
//  641     }
//  642 
//  643     return h;
        MOV     A,R0
        MOV     R2,A
        MOV     A,R1
        MOV     R3,A
??parse_hex4_4:
        LJMP    ??Subroutine160_0 & 0xFFFF
??parse_hex4_1:
        ADD     A,#-0x41
        CLR     C
        SUBB    A,#0x6
        MOVX    A,@DPTR
        JNC     ??parse_hex4_5
        ADD     A,#-0x37
        SJMP    ??parse_hex4_2
??parse_hex4_5:
        ADD     A,#-0x61
        CLR     C
        SUBB    A,#0x6
        JNC     ??parse_hex4_6
        MOVX    A,@DPTR
        ADD     A,#-0x57
        SJMP    ??parse_hex4_2
??parse_hex4_6:
        MOV     R2,#0x0
        MOV     R3,#0x0
        SJMP    ??parse_hex4_4
        CFI EndBlock cfiBlock68
//  644 }
//  645 
//  646 /* converts a UTF-16 literal to UTF-8
//  647  * A literal can be one or two sequences of the form \uXXXX */

        RSEG BANKED_CODE:CODE:NOROOT(0)
//  648 static unsigned char utf16_literal_to_utf8(const unsigned char * const input_pointer, const unsigned char * const input_end, unsigned char **output_pointer)
utf16_literal_to_utf8:
        CFI Block cfiBlock69 Using cfiCommon0
        CFI Function utf16_literal_to_utf8
        CODE
//  649 {
        FUNCALL utf16_literal_to_utf8, parse_hex4
        LOCFRAME ISTACK, 0, STACK
        LOCFRAME PSTACK, 0, STACK
        LOCFRAME XSTACK, 18, STACK
        LOCFRAME IOVERLAY, 0, STATIC
        LOCFRAME DOVERLAY, 0, STATIC
        ARGFRAME ISTACK, 0, STACK
        ARGFRAME PSTACK, 0, STACK
        ARGFRAME XSTACK, 18, STACK
        ARGFRAME IOVERLAY, 0, STATIC
        ARGFRAME DOVERLAY, 0, STATIC
        FUNCALL utf16_literal_to_utf8, parse_hex4
        LOCFRAME ISTACK, 0, STACK
        LOCFRAME PSTACK, 0, STACK
        LOCFRAME XSTACK, 18, STACK
        LOCFRAME IOVERLAY, 0, STATIC
        LOCFRAME DOVERLAY, 0, STATIC
        ARGFRAME ISTACK, 0, STACK
        ARGFRAME PSTACK, 0, STACK
        ARGFRAME XSTACK, 18, STACK
        ARGFRAME IOVERLAY, 0, STATIC
        ARGFRAME DOVERLAY, 0, STATIC
        MOV     A,#-0x12
        LCALL   ?BANKED_ENTER_XDATA
        CFI DPH0 load(1, XDATA, add(CFA_XSP16, literal(-1)))
        CFI DPL0 load(1, XDATA, add(CFA_XSP16, literal(-2)))
        CFI ?BRET_EXT load(1, XDATA, add(CFA_XSP16, literal(-3)))
        CFI ?RET_HIGH load(1, XDATA, add(CFA_XSP16, literal(-4)))
        CFI ?RET_LOW load(1, XDATA, add(CFA_XSP16, literal(-5)))
        CFI R7 load(1, XDATA, add(CFA_XSP16, literal(-6)))
        CFI V9 load(1, XDATA, add(CFA_XSP16, literal(-7)))
        CFI V8 load(1, XDATA, add(CFA_XSP16, literal(-8)))
        CFI V7 load(1, XDATA, add(CFA_XSP16, literal(-9)))
        CFI V6 load(1, XDATA, add(CFA_XSP16, literal(-10)))
        CFI V5 load(1, XDATA, add(CFA_XSP16, literal(-11)))
        CFI V4 load(1, XDATA, add(CFA_XSP16, literal(-12)))
        CFI V3 load(1, XDATA, add(CFA_XSP16, literal(-13)))
        CFI V2 load(1, XDATA, add(CFA_XSP16, literal(-14)))
        CFI V1 load(1, XDATA, add(CFA_XSP16, literal(-15)))
        CFI V0 load(1, XDATA, add(CFA_XSP16, literal(-16)))
        CFI VB load(1, XDATA, add(CFA_XSP16, literal(-17)))
        CFI R6 load(1, XDATA, add(CFA_XSP16, literal(-18)))
        CFI CFA_SP SP+0
        CFI CFA_XSP16 add(XSP16, 18)
        ; Saved register size: 18
        ; Auto size: 0
        MOV     ?V0 + 0,R2
        MOV     ?V0 + 1,R3
        MOV     ?V0 + 2,R4
        MOV     ?V0 + 3,R5
        MOV     A,#0x12
        LCALL   ?XSTACK_DISP0_8
        LCALL   ?Subroutine56 & 0xFFFF
//  650     long unsigned int codepoint = 0;
//  651     unsigned int first_code = 0;
//  652     const unsigned char *first_sequence = input_pointer;
//  653     unsigned char utf8_length = 0;
//  654     unsigned char utf8_position = 0;
//  655     unsigned char sequence_length = 0;
//  656     unsigned char first_byte_mark = 0;
??CrossCallReturnLabel_83:
        MOV     R7,#0x0
//  657 
//  658     if ((input_end - first_sequence) < 6)
        MOV     A,R4
        CLR     C
        SUBB    A,?V0 + 0
        MOV     R0,A
        MOV     A,R5
        SUBB    A,?V0 + 1
        MOV     R1,A
        CLR     C
        MOV     A,R0
        SUBB    A,#0x6
        MOV     A,R1
        LCALL   ??Subroutine203_0 & 0xFFFF
??CrossCallReturnLabel_490:
        JNC     $+5
        LJMP    ??utf16_literal_to_utf8_0 & 0xFFFF
//  659     {
//  660         /* input ends unexpectedly */
//  661         goto fail;
//  662     }
//  663 
//  664     /* get the first utf16 sequence */
//  665     first_code = parse_hex4(first_sequence + 2);
        ; Setup parameters for call to function parse_hex4
        MOV     A,R2
        ADD     A,#0x2
        INC     R2
        INC     R2
        MOV     A,R3
        ADDC    A,#0x0
        MOV     R3,A
        LCALL   ??parse_hex4?relay
        MOV     ?V0 + 6,R2
        MOV     ?V0 + 7,R3
//  666 
//  667     /* check that the code is valid */
//  668     if (((first_code >= 0xDC00) && (first_code <= 0xDFFF)))
        LCALL   ?Subroutine114 & 0xFFFF
??CrossCallReturnLabel_179:
        JNC     $+5
        LJMP    ??utf16_literal_to_utf8_0 & 0xFFFF
//  669     {
//  670         goto fail;
//  671     }
//  672 
//  673     /* UTF16 surrogate pair */
//  674     if ((first_code >= 0xD800) && (first_code <= 0xDBFF))
        MOV     A,R2
        ADD     A,#0x0
        MOV     A,R3
        ADDC    A,#0x28
        CLR     C
        SUBB    A,#0x4
        JNC     ??utf16_literal_to_utf8_1
//  675     {
//  676         const unsigned char *second_sequence = first_sequence + 6;
        MOV     A,?V0 + 0
        ADD     A,#0x6
        MOV     R0,A
        MOV     A,?V0 + 1
        ADDC    A,#0x0
        MOV     R1,A
//  677         unsigned int second_code = 0;
//  678         sequence_length = 12; /* \uXXXX\uXXXX */
        MOV     R6,#0xc
//  679 
//  680         if ((input_end - second_sequence) < 6)
        MOV     A,?V0 + 2
        CLR     C
        SUBB    A,R0
        MOV     R2,A
        MOV     A,?V0 + 3
        SUBB    A,R1
        MOV     R3,A
        CLR     C
        MOV     A,R2
        SUBB    A,#0x6
        MOV     A,R3
        LCALL   ??Subroutine203_0 & 0xFFFF
??CrossCallReturnLabel_491:
        JNC     $+5
        LJMP    ??utf16_literal_to_utf8_0 & 0xFFFF
//  681         {
//  682             /* input ends unexpectedly */
//  683             goto fail;
//  684         }
//  685 
//  686         if ((second_sequence[0] != '\\') || (second_sequence[1] != 'u'))
        MOV     DPL,R0
        MOV     DPH,R1
        MOVX    A,@DPTR
        XRL     A,#0x5c
        JZ      $+5
        LJMP    ??utf16_literal_to_utf8_0 & 0xFFFF
        INC     DPTR
        MOVX    A,@DPTR
        XRL     A,#0x75
        JZ      $+5
        LJMP    ??utf16_literal_to_utf8_0 & 0xFFFF
//  687         {
//  688             /* missing second half of the surrogate pair */
//  689             goto fail;
//  690         }
//  691 
//  692         /* get the second utf16 sequence */
//  693         second_code = parse_hex4(second_sequence + 2);
        ; Setup parameters for call to function parse_hex4
        MOV     A,R0
        ADD     A,#0x2
        MOV     R2,A
        MOV     A,R1
        ADDC    A,#0x0
        MOV     R3,A
        LCALL   ??parse_hex4?relay
        MOV     ?V0 + 0,R2
//  694         /* check that the code is valid */
//  695         if ((second_code < 0xDC00) || (second_code > 0xDFFF))
        LCALL   ?Subroutine114 & 0xFFFF
??CrossCallReturnLabel_180:
        JC      $+5
        LJMP    ??utf16_literal_to_utf8_0 & 0xFFFF
//  696         {
//  697             /* invalid second half of the surrogate pair */
//  698             goto fail;
//  699         }
//  700 
//  701 
//  702         /* calculate the unicode codepoint from the surrogate pair */
//  703         codepoint = 0x10000 + (((first_code & 0x3FF) << 10) | (second_code & 0x3FF));
        MOV     A,#0xa
        MOV     R0,#?V0 + 6
        LCALL   ?S_SHL
        MOV     A,R3
        ANL     A,#0x3
        MOV     R1,A
        MOV     A,?V0 + 7
        ORL     A,R1
        MOV     ?V0 + 1,A
        CLR     A
        MOV     ?V0 + 2,A
        MOV     ?V0 + 3,A
        MOV     DPTR,#__Constant_10000
        MOV     R0,#?V0 + 0
        LCALL   ?L_ADD_X
        SJMP    ??utf16_literal_to_utf8_2
//  704     }
//  705     else
//  706     {
//  707         sequence_length = 6; /* \uXXXX */
??utf16_literal_to_utf8_1:
        MOV     R6,#0x6
//  708         codepoint = first_code;
        MOV     ?V0 + 0,R2
        MOV     ?V0 + 1,R3
        CLR     A
        MOV     ?V0 + 2,A
        MOV     ?V0 + 3,A
//  709     }
//  710 
//  711     /* encode as UTF-8
//  712      * takes at maximum 4 bytes to encode:
//  713      * 11110xxx 10xxxxxx 10xxxxxx 10xxxxxx */
//  714     if (codepoint < 0x80)
??utf16_literal_to_utf8_2:
        MOV     DPTR,#__Constant_80
        MOV     R0,#?V0 + 0
        LCALL   ?UL_GE_X
        JC      ??utf16_literal_to_utf8_3
//  715     {
//  716         /* normal ascii, encoding 0xxxxxxx */
//  717         utf8_length = 1;
        MOV     R1,#0x1
        SJMP    ??utf16_literal_to_utf8_4
//  718     }
//  719     else if (codepoint < 0x800)
??utf16_literal_to_utf8_3:
        MOV     DPTR,#__Constant_800
        MOV     R0,#?V0 + 0
        LCALL   ?UL_GE_X
        JC      ??utf16_literal_to_utf8_5
//  720     {
//  721         /* two bytes, encoding 110xxxxx 10xxxxxx */
//  722         utf8_length = 2;
        MOV     R1,#0x2
//  723         first_byte_mark = 0xC0; /* 11000000 */
        MOV     R7,#-0x40
        SJMP    ??utf16_literal_to_utf8_4
//  724     }
//  725     else if (codepoint < 0x10000)
??utf16_literal_to_utf8_5:
        MOV     DPTR,#__Constant_10000
        MOV     R0,#?V0 + 0
        LCALL   ?UL_GE_X
        JC      ??utf16_literal_to_utf8_6
//  726     {
//  727         /* three bytes, encoding 1110xxxx 10xxxxxx 10xxxxxx */
//  728         utf8_length = 3;
        MOV     R1,#0x3
//  729         first_byte_mark = 0xE0; /* 11100000 */
        MOV     R7,#-0x20
        SJMP    ??utf16_literal_to_utf8_4
//  730     }
//  731     else if (codepoint <= 0x10FFFF)
??utf16_literal_to_utf8_6:
        MOV     DPTR,#__Constant_110000
        MOV     R0,#?V0 + 0
        LCALL   ?UL_GE_X
        JC      ??utf16_literal_to_utf8_0
//  732     {
//  733         /* four bytes, encoding 1110xxxx 10xxxxxx 10xxxxxx 10xxxxxx */
//  734         utf8_length = 4;
        MOV     R1,#0x4
//  735         first_byte_mark = 0xF0; /* 11110000 */
        MOV     R7,#-0x10
//  736     }
//  737     else
//  738     {
//  739         /* invalid unicode codepoint */
//  740         goto fail;
//  741     }
//  742 
//  743     /* encode as utf8 */
//  744     for (utf8_position = (unsigned char)(utf8_length - 1); utf8_position > 0; utf8_position--)
??utf16_literal_to_utf8_4:
        MOV     A,#-0x1
        ADD     A,R1
        MOV     R2,A
        SJMP    ??utf16_literal_to_utf8_7
//  745     {
//  746         /* 10xxxxxx */
//  747         (*output_pointer)[utf8_position] = (unsigned char)((codepoint | 0x80) & 0xBF);
??utf16_literal_to_utf8_8:
        MOV     A,?V0 + 0
        ANL     A,#0xbf
        ORL     A,#0x80
        PUSH    A
        CFI CFA_SP SP+-1
        MOV     A,R2
        MOV     R4,A
        MOV     DPL,?V0 + 4
        MOV     DPH,?V0 + 5
        MOVX    A,@DPTR
        ADD     A,R4
        MOV     R0,A
        INC     DPTR
        MOVX    A,@DPTR
        ADDC    A,#0x0
        MOV     DPL,R0
        MOV     DPH,A
        POP     A
        CFI CFA_SP SP+0
        MOVX    @DPTR,A
//  748         codepoint >>= 6;
        MOV     A,#0x6
        MOV     R0,#?V0 + 0
        LCALL   ?UL_SHR
//  749     }
        DEC     R2
??utf16_literal_to_utf8_7:
        MOV     A,R2
        JNZ     ??utf16_literal_to_utf8_8
//  750     /* encode first byte */
//  751     if (utf8_length > 1)
        MOV     A,R1
        CLR     C
        SUBB    A,#0x2
        MOV     A,?V0 + 0
        JC      ??utf16_literal_to_utf8_9
//  752     {
//  753         (*output_pointer)[0] = (unsigned char)((codepoint | first_byte_mark) & 0xFF);
        ORL     A,R7
        SJMP    ??utf16_literal_to_utf8_10
//  754     }
//  755     else
//  756     {
//  757         (*output_pointer)[0] = (unsigned char)(codepoint & 0x7F);
??utf16_literal_to_utf8_9:
        ANL     A,#0x7f
??utf16_literal_to_utf8_10:
        PUSH    A
        CFI CFA_SP SP+-1
        MOV     DPL,?V0 + 4
        MOV     DPH,?V0 + 5
//  758     }
        LCALL   ??Subroutine162_0 & 0xFFFF
??CrossCallReturnLabel_253:
        POP     A
        CFI CFA_SP SP+0
        MOVX    @DPTR,A
//  759 
//  760     *output_pointer += utf8_length;
        MOV     A,R1
        MOV     R0,A
        MOV     DPL,?V0 + 4
        MOV     DPH,?V0 + 5
        MOVX    A,@DPTR
        ADD     A,R0
        MOV     R0,A
        INC     DPTR
        MOVX    A,@DPTR
        ADDC    A,#0x0
        MOV     R1,A
        MOV     DPL,?V0 + 4
        MOV     DPH,?V0 + 5
        LCALL   ??Subroutine195_0 & 0xFFFF
//  761 
//  762     return sequence_length;
??CrossCallReturnLabel_416:
        MOV     A,R6
        MOV     R1,A
        SJMP    ??utf16_literal_to_utf8_11
//  763 
//  764 fail:
//  765     return 0;
??utf16_literal_to_utf8_0:
        MOV     R1,#0x0
??utf16_literal_to_utf8_11:
        LJMP    ?Subroutine6 & 0xFFFF
        CFI EndBlock cfiBlock69
//  766 }

        RSEG BANKED_CODE:CODE:NOROOT(0)
?Subroutine114:
        CFI Block cfiCond70 Using cfiCommon0
        CFI NoFunction
        CFI Conditional ??CrossCallReturnLabel_179
        CFI R6 load(1, XDATA, add(CFA_XSP16, literal(-18)))
        CFI VB load(1, XDATA, add(CFA_XSP16, literal(-17)))
        CFI V0 load(1, XDATA, add(CFA_XSP16, literal(-16)))
        CFI V1 load(1, XDATA, add(CFA_XSP16, literal(-15)))
        CFI V2 load(1, XDATA, add(CFA_XSP16, literal(-14)))
        CFI V3 load(1, XDATA, add(CFA_XSP16, literal(-13)))
        CFI V4 load(1, XDATA, add(CFA_XSP16, literal(-12)))
        CFI V5 load(1, XDATA, add(CFA_XSP16, literal(-11)))
        CFI V6 load(1, XDATA, add(CFA_XSP16, literal(-10)))
        CFI V7 load(1, XDATA, add(CFA_XSP16, literal(-9)))
        CFI V8 load(1, XDATA, add(CFA_XSP16, literal(-8)))
        CFI V9 load(1, XDATA, add(CFA_XSP16, literal(-7)))
        CFI R7 load(1, XDATA, add(CFA_XSP16, literal(-6)))
        CFI ?RET_LOW load(1, XDATA, add(CFA_XSP16, literal(-5)))
        CFI ?RET_HIGH load(1, XDATA, add(CFA_XSP16, literal(-4)))
        CFI ?BRET_EXT load(1, XDATA, add(CFA_XSP16, literal(-3)))
        CFI DPL0 load(1, XDATA, add(CFA_XSP16, literal(-2)))
        CFI DPH0 load(1, XDATA, add(CFA_XSP16, literal(-1)))
        CFI CFA_SP SP+0
        CFI CFA_XSP16 add(XSP16, 18)
        CFI Block cfiCond71 Using cfiCommon0
        CFI (cfiCond71) NoFunction
        CFI (cfiCond71) Conditional ??CrossCallReturnLabel_180
        CFI (cfiCond71) R6 load(1, XDATA, add(CFA_XSP16, literal(-18)))
        CFI (cfiCond71) VB load(1, XDATA, add(CFA_XSP16, literal(-17)))
        CFI (cfiCond71) V0 load(1, XDATA, add(CFA_XSP16, literal(-16)))
        CFI (cfiCond71) V1 load(1, XDATA, add(CFA_XSP16, literal(-15)))
        CFI (cfiCond71) V2 load(1, XDATA, add(CFA_XSP16, literal(-14)))
        CFI (cfiCond71) V3 load(1, XDATA, add(CFA_XSP16, literal(-13)))
        CFI (cfiCond71) V4 load(1, XDATA, add(CFA_XSP16, literal(-12)))
        CFI (cfiCond71) V5 load(1, XDATA, add(CFA_XSP16, literal(-11)))
        CFI (cfiCond71) V6 load(1, XDATA, add(CFA_XSP16, literal(-10)))
        CFI (cfiCond71) V7 load(1, XDATA, add(CFA_XSP16, literal(-9)))
        CFI (cfiCond71) V8 load(1, XDATA, add(CFA_XSP16, literal(-8)))
        CFI (cfiCond71) V9 load(1, XDATA, add(CFA_XSP16, literal(-7)))
        CFI (cfiCond71) R7 load(1, XDATA, add(CFA_XSP16, literal(-6)))
        CFI (cfiCond71) ?RET_LOW load(1, XDATA, add(CFA_XSP16, literal(-5)))
        CFI (cfiCond71) ?RET_HIGH load(1, XDATA, add(CFA_XSP16, literal(-4)))
        CFI (cfiCond71) ?BRET_EXT load(1, XDATA, add(CFA_XSP16, literal(-3)))
        CFI (cfiCond71) DPL0 load(1, XDATA, add(CFA_XSP16, literal(-2)))
        CFI (cfiCond71) DPH0 load(1, XDATA, add(CFA_XSP16, literal(-1)))
        CFI (cfiCond71) CFA_SP SP+0
        CFI (cfiCond71) CFA_XSP16 add(XSP16, 18)
        CFI Block cfiPicker72 Using cfiCommon1
        CFI (cfiPicker72) NoFunction
        CFI (cfiPicker72) Picker
        MOV     A,R2
        ADD     A,#0x0
        MOV     A,R3
        ADDC    A,#0x24
        CLR     C
        SUBB    A,#0x4
        RET
        CFI EndBlock cfiCond70
        CFI EndBlock cfiCond71
        CFI EndBlock cfiPicker72
//  767 
//  768 /* Parse the input text into an unescaped cinput, and populate item. */

        RSEG BANKED_CODE:CODE:NOROOT(0)
//  769 static cJSON_bool parse_string(cJSON * const item, parse_buffer * const input_buffer)
parse_string:
        CFI Block cfiBlock73 Using cfiCommon0
        CFI Function parse_string
        CODE
//  770 {
        FUNCALL parse_string, utf16_literal_to_utf8
        LOCFRAME ISTACK, 0, STACK
        LOCFRAME PSTACK, 0, STACK
        LOCFRAME XSTACK, 22, STACK
        LOCFRAME IOVERLAY, 0, STATIC
        LOCFRAME DOVERLAY, 0, STATIC
        ARGFRAME ISTACK, 0, STACK
        ARGFRAME PSTACK, 0, STACK
        ARGFRAME XSTACK, 22, STACK
        ARGFRAME IOVERLAY, 0, STATIC
        ARGFRAME DOVERLAY, 0, STATIC
        MOV     A,#-0x12
        LCALL   ?BANKED_ENTER_XDATA
        CFI DPH0 load(1, XDATA, add(CFA_XSP16, literal(-1)))
        CFI DPL0 load(1, XDATA, add(CFA_XSP16, literal(-2)))
        CFI ?BRET_EXT load(1, XDATA, add(CFA_XSP16, literal(-3)))
        CFI ?RET_HIGH load(1, XDATA, add(CFA_XSP16, literal(-4)))
        CFI ?RET_LOW load(1, XDATA, add(CFA_XSP16, literal(-5)))
        CFI R7 load(1, XDATA, add(CFA_XSP16, literal(-6)))
        CFI V9 load(1, XDATA, add(CFA_XSP16, literal(-7)))
        CFI V8 load(1, XDATA, add(CFA_XSP16, literal(-8)))
        CFI V7 load(1, XDATA, add(CFA_XSP16, literal(-9)))
        CFI V6 load(1, XDATA, add(CFA_XSP16, literal(-10)))
        CFI V5 load(1, XDATA, add(CFA_XSP16, literal(-11)))
        CFI V4 load(1, XDATA, add(CFA_XSP16, literal(-12)))
        CFI V3 load(1, XDATA, add(CFA_XSP16, literal(-13)))
        CFI V2 load(1, XDATA, add(CFA_XSP16, literal(-14)))
        CFI V1 load(1, XDATA, add(CFA_XSP16, literal(-15)))
        CFI V0 load(1, XDATA, add(CFA_XSP16, literal(-16)))
        CFI VB load(1, XDATA, add(CFA_XSP16, literal(-17)))
        CFI R6 load(1, XDATA, add(CFA_XSP16, literal(-18)))
        CFI CFA_SP SP+0
        CFI CFA_XSP16 add(XSP16, 18)
        ; Saved register size: 18
        ; Auto size: 2
        MOV     A,#-0x2
        LCALL   ?ALLOC_XSTACK8
        CFI CFA_XSP16 add(XSP16, 20)
        MOV     ?V0 + 6,R2
        MOV     ?V0 + 7,R3
        MOV     ?V0 + 0,R4
        MOV     ?V0 + 1,R5
        LCALL   ?Subroutine46 & 0xFFFF
??CrossCallReturnLabel_229:
        MOVX    A,@DPTR
        ADD     A,R0
        MOV     R0,A
        INC     DPTR
        MOVX    A,@DPTR
        ADDC    A,R1
        MOV     R1,A
        MOV     DPL,R0
        MOV     DPH,R1
        INC     DPTR
        MOV     R6,DPL
        MOV     R7,DPH
//  771     const unsigned char *input_pointer = buffer_at_offset(input_buffer) + 1;
//  772     const unsigned char *input_end = buffer_at_offset(input_buffer) + 1;
        MOV     ?V0 + 2,DPL
        MOV     ?V0 + 3,DPH
//  773     unsigned char *output_pointer = NULL;
        MOV     DPL,?XSP + 0
        MOV     DPH,?XSP + 1
        CLR     A
        MOVX    @DPTR,A
        INC     DPTR
        MOVX    @DPTR,A
//  774     unsigned char *output = NULL;
//  775 
//  776     /* not a string */
//  777     if (buffer_at_offset(input_buffer)[0] != '\"')
        MOV     DPL,R0
        MOV     DPH,R1
        MOVX    A,@DPTR
        XRL     A,#0x22
        JZ      $+5
        LJMP    ??parse_string_0 & 0xFFFF
//  778     {
//  779         goto fail;
//  780     }
//  781 
//  782     {
//  783         /* calculate approximate size of the output (overestimate) */
//  784         size_t allocation_length = 0;
//  785         size_t skipped_bytes = 0;
        MOV     R0,#0x0
        MOV     R1,#0x0
        SJMP    ??parse_string_1
//  786         while (((size_t)(input_end - input_buffer->content) < input_buffer->length) && (*input_end != '\"'))
//  787         {
//  788             /* is escape sequence */
//  789             if (input_end[0] == '\\')
??parse_string_2:
        MOVX    A,@DPTR
        XRL     A,#0x5c
        JNZ     ??parse_string_3
//  790             {
//  791                 if ((size_t)(input_end + 1 - input_buffer->content) >= input_buffer->length)
        INC     DPTR
        PUSH    DPL
        CFI CFA_SP SP+-1
        PUSH    DPH
        CFI CFA_SP SP+-2
        MOV     DPL,?V0 + 0
        MOV     DPH,?V0 + 1
        LCALL   ??Subroutine188_0 & 0xFFFF
??CrossCallReturnLabel_379:
        POP     DPH
        CFI CFA_SP SP+-1
        POP     DPL
        CFI CFA_SP SP+0
        MOV     A,DPL
        CLR     C
        SUBB    A,R2
        MOV     R4,A
        MOV     A,DPH
        LCALL   ?Subroutine28 & 0xFFFF
??CrossCallReturnLabel_363:
        JC      $+5
        LJMP    ??parse_string_0 & 0xFFFF
//  792                 {
//  793                     /* prevent buffer overflow when last input character is a backslash */
//  794                     goto fail;
//  795                 }
//  796                 skipped_bytes++;
        LCALL   ??Subroutine150_0 & 0xFFFF
//  797                 input_end++;
??CrossCallReturnLabel_225:
        MOV     DPL,?V0 + 2
        MOV     DPH,?V0 + 3
        INC     DPTR
        MOV     ?V0 + 2,DPL
        MOV     ?V0 + 3,DPH
//  798             }
//  799             input_end++;
??parse_string_3:
        MOV     DPL,?V0 + 2
        MOV     DPH,?V0 + 3
        INC     DPTR
        MOV     ?V0 + 2,DPL
        MOV     ?V0 + 3,DPH
//  800         }
??parse_string_1:
        MOV     DPL,?V0 + 0
        MOV     DPH,?V0 + 1
        LCALL   ??Subroutine188_0 & 0xFFFF
??CrossCallReturnLabel_380:
        MOV     A,?V0 + 2
        CLR     C
        SUBB    A,R2
        MOV     R4,A
        MOV     A,?V0 + 3
        LCALL   ?Subroutine28 & 0xFFFF
??CrossCallReturnLabel_364:
        JC      $+5
        LJMP    ??parse_string_0 & 0xFFFF
        MOV     DPL,?V0 + 2
        MOV     DPH,?V0 + 3
        MOVX    A,@DPTR
        XRL     A,#0x22
        JNZ     ??parse_string_2
        MOVX    A,@DPTR
        XRL     A,#0x22
        JZ      $+5
        LJMP    ??parse_string_0 & 0xFFFF
//  801         if (((size_t)(input_end - input_buffer->content) >= input_buffer->length) || (*input_end != '\"'))
//  802         {
//  803             goto fail; /* string ended unexpectedly */
//  804         }
//  805 
//  806         /* This is at most how much we need for the output */
//  807         allocation_length = (size_t) (input_end - buffer_at_offset(input_buffer)) - skipped_bytes;
//  808         output = (unsigned char*)input_buffer->hooks.allocate(allocation_length + sizeof(""));
        ; Setup parameters for indirect call
        MOV     DPL,?V0 + 0
        MOV     DPH,?V0 + 1
        INC     DPTR
        INC     DPTR
        INC     DPTR
        INC     DPTR
        LCALL   ?Subroutine53 & 0xFFFF
??CrossCallReturnLabel_79:
        LCALL   ?Subroutine135 & 0xFFFF
??CrossCallReturnLabel_209:
        MOV     A,?V0 + 2
        CLR     C
        SUBB    A,R2
        MOV     R2,A
        MOV     A,?V0 + 3
        SUBB    A,R3
        MOV     R3,A
        MOV     A,R2
        CLR     C
        SUBB    A,R0
        MOV     R0,A
        MOV     A,R3
        SUBB    A,R1
        MOV     R1,A
        MOV     A,R0
        ADD     A,#0x1
        MOV     R2,A
        MOV     A,R1
        LCALL   ?Subroutine86 & 0xFFFF
??CrossCallReturnLabel_143:
        INC     DPTR
        INC     DPTR
        INC     DPTR
        INC     DPTR
        INC     DPTR
        INC     DPTR
        INC     DPTR
        INC     DPTR
        LCALL   ??Subroutine162_0 & 0xFFFF
??CrossCallReturnLabel_254:
        LCALL   ?CALL_IND
        MOV     ?V0 + 4,R2
        MOV     ?V0 + 5,R3
//  809         if (output == NULL)
        MOV     A,R2
        ORL     A,?V0 + 5
        JNZ     $+5
        LJMP    ??parse_string_0 & 0xFFFF
//  810         {
//  811             goto fail; /* allocation failure */
//  812         }
//  813     }
//  814 
//  815     output_pointer = output;
        MOV     DPL,?XSP + 0
        MOV     DPH,?XSP + 1
        MOV     A,R2
        MOVX    @DPTR,A
        INC     DPTR
        MOV     A,R3
        SJMP    ??parse_string_4
//  816     /* loop through the string literal */
//  817     while (input_pointer < input_end)
//  818     {
//  819         if (*input_pointer != '\\')
//  820         {
//  821             *output_pointer++ = *input_pointer++;
??parse_string_5:
        MOVX    A,@DPTR
        PUSH    A
        CFI CFA_SP SP+-1
        LCALL   ?Subroutine69 & 0xFFFF
//  822         }
??CrossCallReturnLabel_267:
        POP     A
        CFI CFA_SP SP+0
        LCALL   ?Subroutine106 & 0xFFFF
??CrossCallReturnLabel_169:
        MOV     R6,DPL
        MOV     R7,DPH
        MOV     DPL,?XSP + 0
        MOV     DPH,?XSP + 1
        LCALL   ?Subroutine33 & 0xFFFF
??CrossCallReturnLabel_40:
        MOV     DPL,?XSP + 0
        MOV     DPH,?XSP + 1
        MOV     A,R0
        MOVX    @DPTR,A
        INC     DPTR
        MOV     A,R1
??parse_string_4:
        MOVX    @DPTR,A
??parse_string_6:
        CLR     C
        MOV     A,R6
        SUBB    A,?V0 + 2
        MOV     A,R7
        SUBB    A,?V0 + 3
        JC      $+5
        LJMP    ??parse_string_7 & 0xFFFF
        MOV     DPL,R6
        MOV     DPH,R7
        MOVX    A,@DPTR
        XRL     A,#0x5c
        JNZ     ??parse_string_5
//  823         /* escape sequence */
//  824         else
//  825         {
//  826             unsigned char sequence_length = 2;
        MOV     ?V0 + 8,#0x2
//  827             if ((input_end - input_pointer) < 1)
        MOV     A,?V0 + 2
        CLR     C
        SUBB    A,R6
        MOV     R0,A
        MOV     A,?V0 + 3
        SUBB    A,R7
        MOV     R1,A
        CLR     C
        MOV     A,R0
        SUBB    A,#0x1
        MOV     A,R1
        LCALL   ??Subroutine203_0 & 0xFFFF
??CrossCallReturnLabel_492:
        JNC     $+5
        LJMP    ??parse_string_8 & 0xFFFF
//  828             {
//  829                 goto fail;
//  830             }
//  831 
//  832             switch (input_pointer[1])
        INC     DPTR
        MOVX    A,@DPTR
        ADD     A,#-0x22
        JZ      ??parse_string_9
        ADD     A,#-0xd
        JZ      ??parse_string_9
        ADD     A,#-0x2d
        JZ      ??parse_string_9
        ADD     A,#-0x6
        JZ      ??parse_string_10
        ADD     A,#-0x4
        JZ      ??parse_string_11
        ADD     A,#-0x8
        JZ      ??parse_string_12
        ADD     A,#-0x4
        JZ      ??parse_string_13
        ADD     A,#-0x2
        JZ      ??parse_string_14
        DEC     A
        JZ      ??parse_string_15
        LJMP    ??parse_string_8 & 0xFFFF
//  833             {
//  834                 case 'b':
//  835                     *output_pointer++ = '\b';
??parse_string_10:
        LCALL   ?Subroutine69 & 0xFFFF
??CrossCallReturnLabel_268:
        MOV     A,#0x8
??parse_string_16:
        LCALL   ?Subroutine32 & 0xFFFF
//  836                     break;
??CrossCallReturnLabel_38:
        SJMP    ??parse_string_17
//  837                 case 'f':
//  838                     *output_pointer++ = '\f';
??parse_string_11:
        LCALL   ?Subroutine69 & 0xFFFF
??CrossCallReturnLabel_269:
        MOV     A,#0xc
        SJMP    ??parse_string_16
//  839                     break;
//  840                 case 'n':
//  841                     *output_pointer++ = '\n';
??parse_string_12:
        LCALL   ?Subroutine69 & 0xFFFF
??CrossCallReturnLabel_270:
        MOV     A,#0xa
        SJMP    ??parse_string_16
//  842                     break;
//  843                 case 'r':
//  844                     *output_pointer++ = '\r';
??parse_string_13:
        LCALL   ?Subroutine69 & 0xFFFF
??CrossCallReturnLabel_271:
        MOV     A,#0xd
        SJMP    ??parse_string_16
//  845                     break;
//  846                 case 't':
//  847                     *output_pointer++ = '\t';
??parse_string_14:
        LCALL   ?Subroutine69 & 0xFFFF
??CrossCallReturnLabel_272:
        MOV     A,#0x9
        SJMP    ??parse_string_16
//  848                     break;
//  849                 case '\"':
//  850                 case '\\':
//  851                 case '/':
//  852                     *output_pointer++ = input_pointer[1];
??parse_string_9:
        MOV     DPL,R6
        MOV     DPH,R7
        INC     DPTR
        MOVX    A,@DPTR
        PUSH    A
        CFI CFA_SP SP+-1
        LCALL   ?Subroutine69 & 0xFFFF
??CrossCallReturnLabel_273:
        POP     A
        CFI CFA_SP SP+0
        SJMP    ??parse_string_16
//  853                     break;
//  854 
//  855                 /* UTF-16 literal */
//  856                 case 'u':
//  857                     sequence_length = utf16_literal_to_utf8(input_pointer, input_end, &output_pointer);
??parse_string_15:
        ; Setup parameters for call to function utf16_literal_to_utf8
        MOV     DPL,?XSP + 0
        MOV     DPH,?XSP + 1
        MOV     ?V0 + 8,DPL
        MOV     ?V0 + 9,DPH
        MOV     R0,#?V0 + 8
        LCALL   ?PUSH_XSTACK_I_TWO
        CFI CFA_XSP16 add(XSP16, 22)
        MOV     R4,?V0 + 2
        MOV     R5,?V0 + 3
        MOV     A,R6
        MOV     R2,A
        MOV     A,R7
        MOV     R3,A
        LCALL   ??utf16_literal_to_utf8?relay
        MOV     A,#0x2
        LCALL   ?DEALLOC_XSTACK8
        CFI CFA_XSP16 add(XSP16, 20)
        MOV     A,R1
        MOV     ?V0 + 8,A
//  858                     if (sequence_length == 0)
        JZ      ??parse_string_8
//  859                     {
//  860                         /* failed to convert UTF16-literal to UTF-8 */
//  861                         goto fail;
//  862                     }
//  863                     break;
//  864 
//  865                 default:
//  866                     goto fail;
//  867             }
//  868             input_pointer += sequence_length;
??parse_string_17:
        MOV     A,R6
        ADD     A,?V0 + 8
        MOV     R6,A
        MOV     A,R7
        ADDC    A,#0x0
        MOV     R7,A
        LJMP    ??parse_string_6 & 0xFFFF
//  869         }
//  870     }
//  871 
//  872     /* zero terminate the output */
//  873     *output_pointer = '\0';
??parse_string_7:
        MOV     DPL,?XSP + 0
        MOV     DPH,?XSP + 1
        LCALL   ?Subroutine62 & 0xFFFF
//  874 
//  875     item->type = cJSON_String;
??CrossCallReturnLabel_93:
        MOV     DPL,?V0 + 6
        MOV     DPH,?V0 + 7
        INC     DPTR
        INC     DPTR
        INC     DPTR
        INC     DPTR
        INC     DPTR
        INC     DPTR
        MOV     A,#0x10
        LCALL   ?Subroutine97 & 0xFFFF
//  876     item->valuestring = (char*)output;
??CrossCallReturnLabel_152:
        INC     DPTR
        INC     DPTR
        INC     DPTR
        INC     DPTR
        MOV     A,?V0 + 4
        MOVX    @DPTR,A
        INC     DPTR
        MOV     A,?V0 + 5
        LCALL   ??Subroutine161_0 & 0xFFFF
//  877 
//  878     input_buffer->offset = (size_t) (input_end - input_buffer->content);
//  879     input_buffer->offset++;
??CrossCallReturnLabel_247:
        LCALL   ??Subroutine226_0 & 0xFFFF
??CrossCallReturnLabel_610:
        MOV     A,?V0 + 2
        CLR     C
        SUBB    A,R0
        MOV     R0,A
        MOV     A,?V0 + 3
        SUBB    A,R1
        MOV     R1,A
        LCALL   ??Subroutine150_0 & 0xFFFF
??CrossCallReturnLabel_226:
        LCALL   ?Subroutine95 & 0xFFFF
//  880 
//  881     return true;
??CrossCallReturnLabel_437:
        MOV     R2,#0x1
        SJMP    ??parse_string_18
//  882 
//  883 fail:
//  884     if (output != NULL)
//  885     {
//  886         input_buffer->hooks.deallocate(output);
??parse_string_8:
        ; Setup parameters for indirect call
        MOV     R2,?V0 + 4
        MOV     R3,?V0 + 5
        MOV     DPL,?V0 + 0
        MOV     DPH,?V0 + 1
        INC     DPTR
        INC     DPTR
        INC     DPTR
        INC     DPTR
        INC     DPTR
        INC     DPTR
        INC     DPTR
        INC     DPTR
        INC     DPTR
        INC     DPTR
        LCALL   ??Subroutine162_0 & 0xFFFF
//  887     }
??CrossCallReturnLabel_255:
        LCALL   ?CALL_IND
//  888 
//  889     if (input_pointer != NULL)
??parse_string_0:
        MOV     A,R6
        ORL     A,R7
        JZ      ??CrossCallReturnLabel_438
//  890     {
//  891         input_buffer->offset = (size_t)(input_pointer - input_buffer->content);
        MOV     DPL,?V0 + 0
