///////////////////////////////////////////////////////////////////////////////
//                                                                            /
// IAR C/C++ Compiler V8.10.1.10194/W32 for 8051        08/Dec/2021  21:41:17 /
// Copyright 2004-2011 IAR Systems AB.                                        /
//                                                                            /
//    Core               =  plain                                             /
//    Code model         =  banked                                            /
//    Data model         =  large                                             /
//    Calling convention =  xdata reentrant                                   /
//    Constant location  =  data_rom                                          /
//    Dptr setup         =  1,16                                              /
//    Source file        =  D:\developer_tool_install\IAR\ZStack-CC2530-2.5.1 /
//                          a\Projects\zstack\Samples\SMGW\Source\kitchen.c   /
//    Command line       =  -f D:\developer_tool_install\IAR\ZStack-CC2530-2. /
//                          5.1a\Projects\zstack\Samples\SMGW\CC2530DB\..\..\ /
//                          ..\Tools\CC2530DB\f8wEndev.cfg (-DCPU32MHZ        /
//                          -DROOT=__near_func -DMAC_CFG_TX_DATA_MAX=3        /
//                          -DMAC_CFG_TX_MAX=6 -DMAC_CFG_RX_MAX=3) -f         /
//                          D:\developer_tool_install\IAR\ZStack-CC2530-2.5.1 /
//                          a\Projects\zstack\Samples\SMGW\CC2530DB\..\..\..\ /
//                          Tools\CC2530DB\f8wConfig.cfg (-DZIGBEEPRO         /
//                          -DSECURE=0 -DZG_SECURE_DYNAMIC=0 -DREFLECTOR      /
//                          -DDEFAULT_CHANLIST=0x00010000                     /
//                          -DZDAPP_CONFIG_PAN_ID=0xFFF3                      /
//                          -DNWK_START_DELAY=100 -DEXTENDED_JOINING_RANDOM_M /
//                          ASK=0x007F -DBEACON_REQUEST_DELAY=100             /
//                          -DBEACON_REQ_DELAY_MASK=0x00FF                    /
//                          -DLINK_STATUS_JITTER_MASK=0x007F                  /
//                          -DROUTE_EXPIRY_TIME=30 -DAPSC_ACK_WAIT_DURATION_P /
//                          OLLED=3000 -DNWK_INDIRECT_MSG_TIMEOUT=7           /
//                          -DMAX_RREQ_ENTRIES=8 -DAPSC_MAX_FRAME_RETRIES=3   /
//                          -DNWK_MAX_DATA_RETRIES=2                          /
//                          -DMAX_POLL_FAILURE_RETRIES=2 -DMAX_BCAST=9        /
//                          -DAPS_MAX_GROUPS=16 -DMAX_RTG_ENTRIES=40          /
//                          -DNWK_MAX_BINDING_ENTRIES=4                       /
//                          -DMAX_BINDING_CLUSTER_IDS=4                       /
//                          "-DDEFAULT_KEY={0x01, 0x03, 0x05, 0x07, 0x09,     /
//                          0x0B, 0x0D, 0x0F, 0x00, 0x02, 0x04, 0x06, 0x08,   /
//                          0x0A, 0x0C, 0x0D}" -DMAC_MAX_FRAME_SIZE=116       /
//                          -DZDNWKMGR_MIN_TRANSMISSIONS=20 "-DCONST=const    /
//                          __code" -DGENERIC=__generic                       /
//                          -DRFD_RCVC_ALWAYS_ON=FALSE -DPOLL_RATE=1000       /
//                          -DQUEUED_POLL_RATE=100 -DRESPONSE_POLL_RATE=100)  /
//                          -DREJOIN_POLL_RATE=440 D:\developer_tool_install\ /
//                          IAR\ZStack-CC2530-2.5.1a\Projects\zstack\Samples\ /
//                          SMGW\Source\kitchen.c -D xNWK_AUTO_POLL -D        /
//                          ZTOOL_P1 -D xRFD_RCVC_ALWAYS_ON=TRUE -D xMT_TASK  /
//                          -D xMT_SYS_FUNC -D xMT_ZDO_FUNC -D                /
//                          xLCD_SUPPORTED=DEBUG -D xPOWER_SAVING -lC         /
//                          D:\developer_tool_install\IAR\ZStack-CC2530-2.5.1 /
//                          a\Projects\zstack\Samples\SMGW\CC2530DB\kitchen\L /
//                          ist\ -lA D:\developer_tool_install\IAR\ZStack-CC2 /
//                          530-2.5.1a\Projects\zstack\Samples\SMGW\CC2530DB\ /
//                          kitchen\List\ --diag_suppress Pe001,Pa010 -o      /
//                          D:\developer_tool_install\IAR\ZStack-CC2530-2.5.1 /
//                          a\Projects\zstack\Samples\SMGW\CC2530DB\kitchen\O /
//                          bj\ -e --no_code_motion --debug --core=plain      /
//                          --dptr=16,1 --data_model=large                    /
//                          --code_model=banked --calling_convention=xdata_re /
//                          entrant --place_constants=data_rom                /
//                          --nr_virtual_regs 16 -I                           /
//                          D:\developer_tool_install\IAR\ZStack-CC2530-2.5.1 /
//                          a\Projects\zstack\Samples\SMGW\CC2530DB\ -I       /
//                          D:\developer_tool_install\IAR\ZStack-CC2530-2.5.1 /
//                          a\Projects\zstack\Samples\SMGW\CC2530DB\..\Source /
//                          \ -I D:\developer_tool_install\IAR\ZStack-CC2530- /
//                          2.5.1a\Projects\zstack\Samples\SMGW\CC2530DB\..\. /
//                          .\..\ZMain\TI2530DB\ -I                           /
//                          D:\developer_tool_install\IAR\ZStack-CC2530-2.5.1 /
//                          a\Projects\zstack\Samples\SMGW\CC2530DB\..\..\..\ /
//                          ..\..\Components\hal\include\ -I                  /
//                          D:\developer_tool_install\IAR\ZStack-CC2530-2.5.1 /
//                          a\Projects\zstack\Samples\SMGW\CC2530DB\..\..\..\ /
//                          ..\..\Components\hal\target\CC2530EB\ -I          /
//                          D:\developer_tool_install\IAR\ZStack-CC2530-2.5.1 /
//                          a\Projects\zstack\Samples\SMGW\CC2530DB\..\..\..\ /
//                          ..\..\Components\mac\include\ -I                  /
//                          D:\developer_tool_install\IAR\ZStack-CC2530-2.5.1 /
//                          a\Projects\zstack\Samples\SMGW\CC2530DB\..\..\..\ /
//                          ..\..\Components\mac\high_level\ -I               /
//                          D:\developer_tool_install\IAR\ZStack-CC2530-2.5.1 /
//                          a\Projects\zstack\Samples\SMGW\CC2530DB\..\..\..\ /
//                          ..\..\Components\mac\low_level\srf04\ -I          /
//                          D:\developer_tool_install\IAR\ZStack-CC2530-2.5.1 /
//                          a\Projects\zstack\Samples\SMGW\CC2530DB\..\..\..\ /
//                          ..\..\Components\mac\low_level\srf04\single_chip\ /
//                           -I D:\developer_tool_install\IAR\ZStack-CC2530-2 /
//                          .5.1a\Projects\zstack\Samples\SMGW\CC2530DB\..\.. /
//                          \..\..\..\Components\mt\ -I                       /
//                          D:\developer_tool_install\IAR\ZStack-CC2530-2.5.1 /
//                          a\Projects\zstack\Samples\SMGW\CC2530DB\..\..\..\ /
//                          ..\..\Components\osal\include\ -I                 /
//                          D:\developer_tool_install\IAR\ZStack-CC2530-2.5.1 /
//                          a\Projects\zstack\Samples\SMGW\CC2530DB\..\..\..\ /
//                          ..\..\Components\services\saddr\ -I               /
//                          D:\developer_tool_install\IAR\ZStack-CC2530-2.5.1 /
//                          a\Projects\zstack\Samples\SMGW\CC2530DB\..\..\..\ /
//                          ..\..\Components\services\sdata\ -I               /
//                          D:\developer_tool_install\IAR\ZStack-CC2530-2.5.1 /
//                          a\Projects\zstack\Samples\SMGW\CC2530DB\..\..\..\ /
//                          ..\..\Components\stack\af\ -I                     /
//                          D:\developer_tool_install\IAR\ZStack-CC2530-2.5.1 /
//                          a\Projects\zstack\Samples\SMGW\CC2530DB\..\..\..\ /
//                          ..\..\Components\stack\nwk\ -I                    /
//                          D:\developer_tool_install\IAR\ZStack-CC2530-2.5.1 /
//                          a\Projects\zstack\Samples\SMGW\CC2530DB\..\..\..\ /
//                          ..\..\Components\stack\sapi\ -I                   /
//                          D:\developer_tool_install\IAR\ZStack-CC2530-2.5.1 /
//                          a\Projects\zstack\Samples\SMGW\CC2530DB\..\..\..\ /
//                          ..\..\Components\stack\sec\ -I                    /
//                          D:\developer_tool_install\IAR\ZStack-CC2530-2.5.1 /
//                          a\Projects\zstack\Samples\SMGW\CC2530DB\..\..\..\ /
//                          ..\..\Components\stack\sys\ -I                    /
//                          D:\developer_tool_install\IAR\ZStack-CC2530-2.5.1 /
//                          a\Projects\zstack\Samples\SMGW\CC2530DB\..\..\..\ /
//                          ..\..\Components\stack\zdo\ -I                    /
//                          D:\developer_tool_install\IAR\ZStack-CC2530-2.5.1 /
//                          a\Projects\zstack\Samples\SMGW\CC2530DB\..\..\..\ /
//                          ..\..\Components\zmac\ -I                         /
//                          D:\developer_tool_install\IAR\ZStack-CC2530-2.5.1 /
//                          a\Projects\zstack\Samples\SMGW\CC2530DB\..\..\..\ /
//                          ..\..\Components\zmac\f8w\ -Ohz                   /
//                          --require_prototypes                              /
//    List file          =  D:\developer_tool_install\IAR\ZStack-CC2530-2.5.1 /
//                          a\Projects\zstack\Samples\SMGW\CC2530DB\kitchen\L /
//                          ist\kitchen.s51                                   /
//                                                                            /
//                                                                            /
///////////////////////////////////////////////////////////////////////////////

        NAME kitchen

        RTMODEL "__SystemLibrary", "CLib"
        RTMODEL "__calling_convention", "xdata_reentrant"
        RTMODEL "__code_model", "banked"
        RTMODEL "__core", "plain"
        RTMODEL "__data_model", "large"
        RTMODEL "__dptr_size", "16"
        RTMODEL "__extended_stack", "disabled"
        RTMODEL "__location_for_constants", "data"
        RTMODEL "__number_of_dptrs", "1"
        RTMODEL "__rt_version", "1"

        RSEG DOVERLAY:DATA:NOROOT(0)
        RSEG IOVERLAY:IDATA:NOROOT(0)
        RSEG ISTACK:IDATA:NOROOT(0)
        RSEG PSTACK:XDATA:NOROOT(0)
        RSEG XSTACK:XDATA:NOROOT(0)

        EXTERN ?ALLOC_XSTACK8
        EXTERN ?BANKED_ENTER_XDATA
        EXTERN ?BANKED_LEAVE_XDATA
        EXTERN ?BDISPATCH
        EXTERN ?BRET
        EXTERN ?DEALLOC_XSTACK8
        EXTERN ?FLT_ADD
        EXTERN ?FLT_DIV
        EXTERN ?FLT_GE
        EXTERN ?FLT_LT
        EXTERN ?FLT_MUL
        EXTERN ?FLT_TO_L
        EXTERN ?L_MOV_X
        EXTERN ?MOVE_LONG8_XDATA_XDATA
        EXTERN ?PUSH_XSTACK_I_FOUR
        EXTERN ?PUSH_XSTACK_I_ONE
        EXTERN ?PUSH_XSTACK_I_TWO
        EXTERN ?S_SHL
        EXTERN ?UL_TO_FLT
        EXTERN ?US_SHR
        EXTERN ?V0
        EXTERN ?XSP
        EXTERN ?XSTACK_DISP0_8
        EXTERN __INIT_XDATA_I

        PUBLIC ??GetMq2?relay
        FUNCTION ??GetMq2?relay,0203H
        PUBLIC ??GetMq7?relay
        FUNCTION ??GetMq7?relay,0203H
        PUBLIC ??readAdc?relay
        FUNCTION ??readAdc?relay,0203H
        PUBLIC ??zb_AllowBindConfirm?relay
        FUNCTION ??zb_AllowBindConfirm?relay,0203H
        PUBLIC ??zb_BindConfirm?relay
        FUNCTION ??zb_BindConfirm?relay,0203H
        PUBLIC ??zb_FindDeviceConfirm?relay
        FUNCTION ??zb_FindDeviceConfirm?relay,0203H
        PUBLIC ??zb_HandleKeys?relay
        FUNCTION ??zb_HandleKeys?relay,0203H
        PUBLIC ??zb_HandleOsalEvent?relay
        FUNCTION ??zb_HandleOsalEvent?relay,0203H
        PUBLIC ??zb_ReceiveDataIndication?relay
        FUNCTION ??zb_ReceiveDataIndication?relay,0203H
        PUBLIC ??zb_SendDataConfirm?relay
        FUNCTION ??zb_SendDataConfirm?relay,0203H
        PUBLIC ??zb_StartConfirm?relay
        FUNCTION ??zb_StartConfirm?relay,0203H
        PUBWEAK ADCCON3
        PUBWEAK ADCH
        PUBWEAK ADCL
        PUBWEAK APCFG
        PUBLIC GetMq2
        FUNCTION GetMq2,021203H
        ARGFRAME XSTACK, 112, STACK
        ARGFRAME IOVERLAY, 0, STATIC
        ARGFRAME DOVERLAY, 0, STATIC
        LOCFRAME XSTACK, 64, STACK
        PUBLIC GetMq7
        FUNCTION GetMq7,021203H
        ARGFRAME XSTACK, 112, STACK
        ARGFRAME IOVERLAY, 0, STATIC
        ARGFRAME DOVERLAY, 0, STATIC
        LOCFRAME XSTACK, 64, STACK
        PUBWEAK _A_TCON
        PUBWEAK __Constant_40066666
        PUBWEAK __Constant_40533333
        PUBWEAK __Constant_40a00000
        PUBWEAK __Constant_41200000
        PUBWEAK __Constant_42c80000
        PUBWEAK __Constant_42c80001
        PUBWEAK __Constant_45fff800
        PUBWEAK __Constant_bf99999a
        PUBWEAK __Constant_bff33333
        PUBLIC kitchenDeviceInputCommandList
        PUBLIC kitchenDeviceOutputCommandList
        PUBLIC ledIdList
        PUBLIC readAdc
        FUNCTION readAdc,0203H
        ARGFRAME XSTACK, 54, STACK
        ARGFRAME IOVERLAY, 0, STATIC
        ARGFRAME DOVERLAY, 0, STATIC
        LOCFRAME ISTACK, 2, STACK
        PUBLIC zb_AllowBindConfirm
        FUNCTION zb_AllowBindConfirm,0203H
        ARGFRAME XSTACK, 0, STACK
        PUBLIC zb_BindConfirm
        FUNCTION zb_BindConfirm,0203H
        ARGFRAME XSTACK, 0, STACK
        PUBLIC zb_FindDeviceConfirm
        FUNCTION zb_FindDeviceConfirm,0203H
        ARGFRAME XSTACK, 0, STACK
        PUBLIC zb_HandleKeys
        FUNCTION zb_HandleKeys,0203H
        ARGFRAME XSTACK, 0, STACK
        PUBLIC zb_HandleOsalEvent
        FUNCTION zb_HandleOsalEvent,021203H
        ARGFRAME XSTACK, 0, STACK
        LOCFRAME ISTACK, 2, STACK
        LOCFRAME XSTACK, 117, STACK
        PUBLIC zb_ReceiveDataIndication
        FUNCTION zb_ReceiveDataIndication,0203H
        ARGFRAME XSTACK, 4, STACK
        PUBLIC zb_SendDataConfirm
        FUNCTION zb_SendDataConfirm,0203H
        ARGFRAME XSTACK, 0, STACK
        PUBLIC zb_SimpleDesc
        PUBLIC zb_StartConfirm
        FUNCTION zb_StartConfirm,021203H
        ARGFRAME XSTACK, 0, STACK
        LOCFRAME ISTACK, 2, STACK
        LOCFRAME XSTACK, 100, STACK
        
        CFI Names cfiNames0
        CFI StackFrame CFA_SP SP IDATA
        CFI StackFrame CFA_PSP16 PSP16 XDATA
        CFI StackFrame CFA_XSP16 XSP16 XDATA
        CFI StaticOverlayFrame CFA_IOVERLAY IOVERLAY
        CFI StaticOverlayFrame CFA_DOVERLAY DOVERLAY
        CFI Resource `PSW.CY`:1, `B.BR0`:1, `B.BR1`:1, `B.BR2`:1, `B.BR3`:1
        CFI Resource `B.BR4`:1, `B.BR5`:1, `B.BR6`:1, `B.BR7`:1, `VB.BR8`:1
        CFI Resource `VB.BR9`:1, `VB.BR10`:1, `VB.BR11`:1, `VB.BR12`:1
        CFI Resource `VB.BR13`:1, `VB.BR14`:1, `VB.BR15`:1, VB:8, B:8, A:8
        CFI Resource PSW:8, DPL0:8, DPH0:8, R0:8, R1:8, R2:8, R3:8, R4:8, R5:8
        CFI Resource R6:8, R7:8, V0:8, V1:8, V2:8, V3:8, V4:8, V5:8, V6:8, V7:8
        CFI Resource V8:8, V9:8, V10:8, V11:8, V12:8, V13:8, V14:8, V15:8, SP:8
        CFI Resource PSPH:8, PSPL:8, PSP16:16, XSPH:8, XSPL:8, XSP16:16
        CFI VirtualResource ?RET:24
        CFI Resource ?BRET_EXT:8
        CFI VirtualResource ?RET_HIGH:8, ?RET_LOW:8
        CFI ResourceParts PSP16 PSPH, PSPL
        CFI ResourceParts XSP16 XSPH, XSPL
        CFI ResourceParts ?RET ?BRET_EXT, ?RET_HIGH, ?RET_LOW
        CFI EndNames cfiNames0
        
        CFI Common cfiCommon0 Using cfiNames0
        CFI CodeAlign 1
        CFI DataAlign -1
        CFI ReturnAddress ?RET CODE
        CFI CFA_DOVERLAY Used
        CFI CFA_IOVERLAY Used
        CFI CFA_SP SP+-3
        CFI CFA_PSP16 PSP16+0
        CFI CFA_XSP16 XSP16+0
        CFI `PSW.CY` SameValue
        CFI `B.BR0` SameValue
        CFI `B.BR1` SameValue
        CFI `B.BR2` SameValue
        CFI `B.BR3` SameValue
        CFI `B.BR4` SameValue
        CFI `B.BR5` SameValue
        CFI `B.BR6` SameValue
        CFI `B.BR7` SameValue
        CFI `VB.BR8` SameValue
        CFI `VB.BR9` SameValue
        CFI `VB.BR10` SameValue
        CFI `VB.BR11` SameValue
        CFI `VB.BR12` SameValue
        CFI `VB.BR13` SameValue
        CFI `VB.BR14` SameValue
        CFI `VB.BR15` SameValue
        CFI VB SameValue
        CFI B Undefined
        CFI A Undefined
        CFI PSW SameValue
        CFI DPL0 SameValue
        CFI DPH0 SameValue
        CFI R0 Undefined
        CFI R1 Undefined
        CFI R2 Undefined
        CFI R3 Undefined
        CFI R4 Undefined
        CFI R5 Undefined
        CFI R6 SameValue
        CFI R7 SameValue
        CFI V0 SameValue
        CFI V1 SameValue
        CFI V2 SameValue
        CFI V3 SameValue
        CFI V4 SameValue
        CFI V5 SameValue
        CFI V6 SameValue
        CFI V7 SameValue
        CFI V8 SameValue
        CFI V9 SameValue
        CFI V10 SameValue
        CFI V11 SameValue
        CFI V12 SameValue
        CFI V13 SameValue
        CFI V14 SameValue
        CFI V15 SameValue
        CFI PSPH Undefined
        CFI PSPL Undefined
        CFI XSPH Undefined
        CFI XSPL Undefined
        CFI ?RET Concat
        CFI ?BRET_EXT Frame(CFA_SP, 3)
        CFI ?RET_HIGH Frame(CFA_SP, 2)
        CFI ?RET_LOW Frame(CFA_SP, 1)
        CFI EndCommon cfiCommon0
        
        
        CFI Common cfiCommon1 Using cfiNames0
        CFI CodeAlign 1
        CFI DataAlign -1
        CFI ReturnAddress ?RET CODE
        CFI CFA_DOVERLAY Used
        CFI CFA_IOVERLAY Used
        CFI CFA_SP SP+-2
        CFI CFA_PSP16 PSP16+0
        CFI CFA_XSP16 XSP16+0
        CFI `PSW.CY` SameValue
        CFI `B.BR0` SameValue
        CFI `B.BR1` SameValue
        CFI `B.BR2` SameValue
        CFI `B.BR3` SameValue
        CFI `B.BR4` SameValue
        CFI `B.BR5` SameValue
        CFI `B.BR6` SameValue
        CFI `B.BR7` SameValue
        CFI `VB.BR8` SameValue
        CFI `VB.BR9` SameValue
        CFI `VB.BR10` SameValue
        CFI `VB.BR11` SameValue
        CFI `VB.BR12` SameValue
        CFI `VB.BR13` SameValue
        CFI `VB.BR14` SameValue
        CFI `VB.BR15` SameValue
        CFI VB SameValue
        CFI B SameValue
        CFI A SameValue
        CFI PSW SameValue
        CFI DPL0 SameValue
        CFI DPH0 SameValue
        CFI R0 SameValue
        CFI R1 SameValue
        CFI R2 SameValue
        CFI R3 SameValue
        CFI R4 SameValue
        CFI R5 SameValue
        CFI R6 SameValue
        CFI R7 SameValue
        CFI V0 SameValue
        CFI V1 SameValue
        CFI V2 SameValue
        CFI V3 SameValue
        CFI V4 SameValue
        CFI V5 SameValue
        CFI V6 SameValue
        CFI V7 SameValue
        CFI V8 SameValue
        CFI V9 SameValue
        CFI V10 SameValue
        CFI V11 SameValue
        CFI V12 SameValue
        CFI V13 SameValue
        CFI V14 SameValue
        CFI V15 SameValue
        CFI PSPH Undefined
        CFI PSPL Undefined
        CFI XSPH Undefined
        CFI XSPL Undefined
        CFI ?RET Concat
        CFI ?BRET_EXT SameValue
        CFI ?RET_HIGH Frame(CFA_SP, 2)
        CFI ?RET_LOW Frame(CFA_SP, 1)
        CFI EndCommon cfiCommon1
        
sprintf             SYMBOL "sprintf"
osal_strlen         SYMBOL "osal_strlen"
HalUARTWrite        SYMBOL "HalUARTWrite"
HalLedSet           SYMBOL "HalLedSet"
HalUARTOpen         SYMBOL "HalUARTOpen"
zb_SendDataRequest  SYMBOL "zb_SendDataRequest"
osal_start_timerEx  SYMBOL "osal_start_timerEx"
??HalLedSet?relay   SYMBOL "?relay", HalLedSet
??HalUARTOpen?relay SYMBOL "?relay", HalUARTOpen
??HalUARTWrite?relay SYMBOL "?relay", HalUARTWrite
??osal_start_timerEx?relay SYMBOL "?relay", osal_start_timerEx
??osal_strlen?relay SYMBOL "?relay", osal_strlen
??sprintf?relay     SYMBOL "?relay", sprintf
??zb_SendDataRequest?relay SYMBOL "?relay", zb_SendDataRequest
GetMq2              SYMBOL "GetMq2"
??GetMq2?relay      SYMBOL "?relay", GetMq2
GetMq7              SYMBOL "GetMq7"
??GetMq7?relay      SYMBOL "?relay", GetMq7
readAdc             SYMBOL "readAdc"
??readAdc?relay     SYMBOL "?relay", readAdc
zb_AllowBindConfirm SYMBOL "zb_AllowBindConfirm"
??zb_AllowBindConfirm?relay SYMBOL "?relay", zb_AllowBindConfirm
zb_BindConfirm      SYMBOL "zb_BindConfirm"
??zb_BindConfirm?relay SYMBOL "?relay", zb_BindConfirm
zb_FindDeviceConfirm SYMBOL "zb_FindDeviceConfirm"
??zb_FindDeviceConfirm?relay SYMBOL "?relay", zb_FindDeviceConfirm
zb_HandleKeys       SYMBOL "zb_HandleKeys"
??zb_HandleKeys?relay SYMBOL "?relay", zb_HandleKeys
zb_HandleOsalEvent  SYMBOL "zb_HandleOsalEvent"
??zb_HandleOsalEvent?relay SYMBOL "?relay", zb_HandleOsalEvent
zb_ReceiveDataIndication SYMBOL "zb_ReceiveDataIndication"
??zb_ReceiveDataIndication?relay SYMBOL "?relay", zb_ReceiveDataIndication
zb_SendDataConfirm  SYMBOL "zb_SendDataConfirm"
??zb_SendDataConfirm?relay SYMBOL "?relay", zb_SendDataConfirm
zb_StartConfirm     SYMBOL "zb_StartConfirm"
??zb_StartConfirm?relay SYMBOL "?relay", zb_StartConfirm

        EXTERN sprintf
        FUNCTION sprintf,0202H
        ARGFRAME ISTACK, 0, STACK
        ARGFRAME PSTACK, 0, STACK
        ARGFRAME XSTACK, 116, STACK
        ARGFRAME IOVERLAY, 0, STATIC
        ARGFRAME DOVERLAY, 0, STATIC
        EXTERN osal_strlen
        FUNCTION osal_strlen,0202H
        ARGFRAME ISTACK, 0, STACK
        ARGFRAME PSTACK, 0, STACK
        ARGFRAME XSTACK, 117, STACK
        ARGFRAME IOVERLAY, 0, STATIC
        ARGFRAME DOVERLAY, 0, STATIC
        EXTERN HalUARTWrite
        FUNCTION HalUARTWrite,0202H
        ARGFRAME ISTACK, 0, STACK
        ARGFRAME PSTACK, 0, STACK
        ARGFRAME XSTACK, 112, STACK
        ARGFRAME IOVERLAY, 0, STATIC
        ARGFRAME DOVERLAY, 0, STATIC
        EXTERN HalLedSet
        FUNCTION HalLedSet,0202H
        ARGFRAME ISTACK, 0, STACK
        ARGFRAME PSTACK, 0, STACK
        ARGFRAME XSTACK, 95, STACK
        ARGFRAME IOVERLAY, 0, STATIC
        ARGFRAME DOVERLAY, 0, STATIC
        EXTERN HalUARTOpen
        FUNCTION HalUARTOpen,0202H
        ARGFRAME ISTACK, 0, STACK
        ARGFRAME PSTACK, 0, STACK
        ARGFRAME XSTACK, 95, STACK
        ARGFRAME IOVERLAY, 0, STATIC
        ARGFRAME DOVERLAY, 0, STATIC
        EXTERN zb_SendDataRequest
        FUNCTION zb_SendDataRequest,0202H
        ARGFRAME ISTACK, 0, STACK
        ARGFRAME PSTACK, 0, STACK
        ARGFRAME XSTACK, 117, STACK
        ARGFRAME IOVERLAY, 0, STATIC
        ARGFRAME DOVERLAY, 0, STATIC
        EXTERN osal_start_timerEx
        FUNCTION osal_start_timerEx,0202H
        ARGFRAME ISTACK, 0, STACK
        ARGFRAME PSTACK, 0, STACK
        ARGFRAME XSTACK, 112, STACK
        ARGFRAME IOVERLAY, 0, STATIC
        ARGFRAME DOVERLAY, 0, STATIC
        EXTERN ??HalLedSet?relay
        FUNCTION ??HalLedSet?relay,00H
        EXTERN ??HalUARTOpen?relay
        FUNCTION ??HalUARTOpen?relay,00H
        EXTERN ??HalUARTWrite?relay
        FUNCTION ??HalUARTWrite?relay,00H
        EXTERN ??osal_start_timerEx?relay
        FUNCTION ??osal_start_timerEx?relay,00H
        EXTERN ??osal_strlen?relay
        FUNCTION ??osal_strlen?relay,00H
        EXTERN ??sprintf?relay
        FUNCTION ??sprintf?relay,00H
        EXTERN ??zb_SendDataRequest?relay
        FUNCTION ??zb_SendDataRequest?relay,00H
        EXTERN sapi_TaskID

// D:\developer_tool_install\IAR\ZStack-CC2530-2.5.1a\Projects\zstack\Samples\SMGW\Source\kitchen.c
//    1 #include "kitchen.h"

        ASEGN SFR_AN:DATA:NOROOT,088H
// union <unnamed> volatile __sfr _A_TCON
_A_TCON:
        DATA8
        DS 1

        ASEGN SFR_AN:DATA:NOROOT,0b6H
// unsigned char volatile __sfr ADCCON3
ADCCON3:
        DATA8
        DS 1

        ASEGN SFR_AN:DATA:NOROOT,0baH
// unsigned char volatile __sfr ADCL
ADCL:
        DATA8
        DS 1

        ASEGN SFR_AN:DATA:NOROOT,0bbH
// unsigned char volatile __sfr ADCH
ADCH:
        DATA8
        DS 1

        ASEGN SFR_AN:DATA:NOROOT,0f2H
// unsigned char volatile __sfr APCFG
APCFG:
        DATA8
        DS 1

        RSEG XDATA_I:XDATA:NOROOT(0)
// uint8 ledIdList[2]
ledIdList:
        DATA16
        DS 2
        REQUIRE `?<Initializer for ledIdList>`
        REQUIRE __INIT_XDATA_I

        RSEG XDATA_ROM_C:CONST:REORDER:NOROOT(0)
        DATA8
// unsigned short const __xdata_rom kitchenDeviceInputCommandList[6]
kitchenDeviceInputCommandList:
        DATA16
        DW 1
        DW 2
        DW 3
        DW 4
        DW 5
        DW 6

        RSEG XDATA_ROM_C:CONST:REORDER:NOROOT(0)
        DATA8
// unsigned short const __xdata_rom kitchenDeviceOutputCommandList[3]
kitchenDeviceOutputCommandList:
        DATA16
        DW 1
        DW 2
        DW 4

        RSEG XDATA_ROM_C:CONST:REORDER:NOROOT(0)
        DATA8
// struct <unnamed> const __xdata_rom zb_SimpleDesc
zb_SimpleDesc:
        DB 1
        DATA16
        DW 1281
        DW 2
        DATA8
        DB 0
        DB 6
        DATA16
        DW kitchenDeviceInputCommandList
        DATA8
        DB 3
        DATA16
        DW kitchenDeviceOutputCommandList
//    2 

        RSEG BANKED_CODE:CODE:NOROOT(0)
//    3 unsigned int readAdc(unsigned char channal)
readAdc:
        CFI Block cfiBlock0 Using cfiCommon0
        CFI Function readAdc
        CODE
//    4 {
        PUSH    ?V0 + 0
        CFI V0 Frame(CFA_SP, 4)
        CFI CFA_SP SP+-4
        PUSH    ?V0 + 1
        CFI V1 Frame(CFA_SP, 5)
        CFI CFA_SP SP+-5
        ; Saved register size: 2
        ; Auto size: 0
//    5   unsigned int value ; 
//    6   APCFG |= 1 << channal ; 
        MOV     ?V0 + 0,#0x1
        MOV     ?V0 + 1,#0x0
        MOV     A,R1
        MOV     R0,#?V0 + 0
        LCALL   ?S_SHL
        MOV     A,?V0 + 0
        ORL     0xf2,A
//    7   ADCIF = 0 ;
        CLR     0x88.5
//    8  
//    9   ADCCON3 = channal;          
        MOV     0xb6,R1
//   10   while ( !ADCIF ) ; 
??readAdc_0:
        MOV     C,0x88.5
        JNC     ??readAdc_0
//   11   
//   12   value = ADCL;
        MOV     A,0xba
        MOV     ?V0 + 0,A
//   13   value |= ((unsigned int) ADCH) << 8 ;
//   14   value>>=2;
//   15   
//   16   return value; 
        MOV     A,0xbb
        MOV     ?V0 + 1,A
        MOV     A,#0x2
        MOV     R0,#?V0 + 0
        LCALL   ?US_SHR
        MOV     R2,?V0 + 0
        MOV     R3,?V0 + 1
        POP     ?V0 + 1
        CFI V1 SameValue
        CFI CFA_SP SP+-4
        POP     ?V0 + 0
        CFI V0 SameValue
        CFI CFA_SP SP+-3
        LJMP    ?BRET
        CFI EndBlock cfiBlock0
        REQUIRE APCFG
        REQUIRE _A_TCON
        REQUIRE ADCCON3
        REQUIRE ADCL
        REQUIRE ADCH
//   17 }
//   18 
//   19 
//   20 //读取MQ2的浓度

        RSEG BANKED_CODE:CODE:NOROOT(0)
//   21 uint8 GetMq2(void){
GetMq2:
        CFI Block cfiBlock1 Using cfiCommon0
        CFI Function GetMq2
        CODE
        FUNCALL GetMq2, readAdc
        LOCFRAME ISTACK, 0, STACK
        LOCFRAME PSTACK, 0, STACK
        LOCFRAME XSTACK, 54, STACK
        LOCFRAME IOVERLAY, 0, STATIC
        LOCFRAME DOVERLAY, 0, STATIC
        ARGFRAME ISTACK, 0, STACK
        ARGFRAME PSTACK, 0, STACK
        ARGFRAME XSTACK, 54, STACK
        ARGFRAME IOVERLAY, 0, STATIC
        ARGFRAME DOVERLAY, 0, STATIC
        FUNCALL GetMq2, sprintf
        LOCFRAME ISTACK, 0, STACK
        LOCFRAME PSTACK, 0, STACK
        LOCFRAME XSTACK, 64, STACK
        LOCFRAME IOVERLAY, 0, STATIC
        LOCFRAME DOVERLAY, 0, STATIC
        ARGFRAME ISTACK, 0, STACK
        ARGFRAME PSTACK, 0, STACK
        ARGFRAME XSTACK, 64, STACK
        ARGFRAME IOVERLAY, 0, STATIC
        ARGFRAME DOVERLAY, 0, STATIC
        FUNCALL GetMq2, osal_strlen
        LOCFRAME ISTACK, 0, STACK
        LOCFRAME PSTACK, 0, STACK
        LOCFRAME XSTACK, 54, STACK
        LOCFRAME IOVERLAY, 0, STATIC
        LOCFRAME DOVERLAY, 0, STATIC
        ARGFRAME ISTACK, 0, STACK
        ARGFRAME PSTACK, 0, STACK
        ARGFRAME XSTACK, 54, STACK
        ARGFRAME IOVERLAY, 0, STATIC
        ARGFRAME DOVERLAY, 0, STATIC
        FUNCALL GetMq2, HalUARTWrite
        LOCFRAME ISTACK, 0, STACK
        LOCFRAME PSTACK, 0, STACK
        LOCFRAME XSTACK, 54, STACK
        LOCFRAME IOVERLAY, 0, STATIC
        LOCFRAME DOVERLAY, 0, STATIC
        ARGFRAME ISTACK, 0, STACK
        ARGFRAME PSTACK, 0, STACK
        ARGFRAME XSTACK, 54, STACK
        ARGFRAME IOVERLAY, 0, STATIC
        ARGFRAME DOVERLAY, 0, STATIC
        FUNCALL GetMq2, HalLedSet
        LOCFRAME ISTACK, 0, STACK
        LOCFRAME PSTACK, 0, STACK
        LOCFRAME XSTACK, 54, STACK
        LOCFRAME IOVERLAY, 0, STATIC
        LOCFRAME DOVERLAY, 0, STATIC
        ARGFRAME ISTACK, 0, STACK
        ARGFRAME PSTACK, 0, STACK
        ARGFRAME XSTACK, 54, STACK
        ARGFRAME IOVERLAY, 0, STATIC
        ARGFRAME DOVERLAY, 0, STATIC
        FUNCALL GetMq2, HalLedSet
        LOCFRAME ISTACK, 0, STACK
        LOCFRAME PSTACK, 0, STACK
        LOCFRAME XSTACK, 54, STACK
        LOCFRAME IOVERLAY, 0, STATIC
        LOCFRAME DOVERLAY, 0, STATIC
        ARGFRAME ISTACK, 0, STACK
        ARGFRAME PSTACK, 0, STACK
        ARGFRAME XSTACK, 54, STACK
        ARGFRAME IOVERLAY, 0, STATIC
        ARGFRAME DOVERLAY, 0, STATIC
        MOV     A,#-0x18
        LCALL   ?BANKED_ENTER_XDATA
        CFI DPH0 load(1, XDATA, add(CFA_XSP16, literal(-1)))
        CFI DPL0 load(1, XDATA, add(CFA_XSP16, literal(-2)))
        CFI ?BRET_EXT load(1, XDATA, add(CFA_XSP16, literal(-3)))
        CFI ?RET_HIGH load(1, XDATA, add(CFA_XSP16, literal(-4)))
        CFI ?RET_LOW load(1, XDATA, add(CFA_XSP16, literal(-5)))
        CFI R7 load(1, XDATA, add(CFA_XSP16, literal(-6)))
        CFI V15 load(1, XDATA, add(CFA_XSP16, literal(-7)))
        CFI V14 load(1, XDATA, add(CFA_XSP16, literal(-8)))
        CFI V13 load(1, XDATA, add(CFA_XSP16, literal(-9)))
        CFI V12 load(1, XDATA, add(CFA_XSP16, literal(-10)))
        CFI V11 load(1, XDATA, add(CFA_XSP16, literal(-11)))
        CFI V10 load(1, XDATA, add(CFA_XSP16, literal(-12)))
        CFI V9 load(1, XDATA, add(CFA_XSP16, literal(-13)))
        CFI V8 load(1, XDATA, add(CFA_XSP16, literal(-14)))
        CFI V7 load(1, XDATA, add(CFA_XSP16, literal(-15)))
        CFI V6 load(1, XDATA, add(CFA_XSP16, literal(-16)))
        CFI V5 load(1, XDATA, add(CFA_XSP16, literal(-17)))
        CFI V4 load(1, XDATA, add(CFA_XSP16, literal(-18)))
        CFI V3 load(1, XDATA, add(CFA_XSP16, literal(-19)))
        CFI V2 load(1, XDATA, add(CFA_XSP16, literal(-20)))
        CFI V1 load(1, XDATA, add(CFA_XSP16, literal(-21)))
        CFI V0 load(1, XDATA, add(CFA_XSP16, literal(-22)))
        CFI VB load(1, XDATA, add(CFA_XSP16, literal(-23)))
        CFI R6 load(1, XDATA, add(CFA_XSP16, literal(-24)))
        CFI CFA_SP SP+0
        CFI CFA_XSP16 add(XSP16, 24)
        ; Saved register size: 24
        ; Auto size: 30
        MOV     A,#-0x1e
        LCALL   ?ALLOC_XSTACK8
        CFI CFA_XSP16 add(XSP16, 54)
//   22   char buffer[30];
//   23   unsigned int adcValue=0;
//   24   float percentage=0.0;
//   25   float vol =0.0;
//   26   adcValue = readAdc(0);
        ; Setup parameters for call to function readAdc
        MOV     R1,#0x0
        LCALL   ?Subroutine3 & 0xFFFF
//   27   vol = (adcValue*1.0/8191.0)*3.3;
??CrossCallReturnLabel_2:
        LCALL   ?UL_TO_FLT
        MOV     DPTR,#__Constant_45fff800
        MOV     R0,#?V0 + 0
        LCALL   ?L_MOV_X
        MOV     R0,#?V0 + 8
        MOV     R1,#?V0 + 0
        LCALL   ?FLT_DIV
        MOV     DPTR,#__Constant_40533333
        MOV     R0,#?V0 + 0
        LCALL   ?L_MOV_X
        MOV     R0,#?V0 + 8
        MOV     R1,#?V0 + 0
        LCALL   ?FLT_MUL
//   28   percentage = ((vol-1.2)*100.0)/2.1;
        MOV     ?V0 + 0,?V0 + 8
        MOV     ?V0 + 1,?V0 + 9
        MOV     ?V0 + 2,?V0 + 10
        MOV     ?V0 + 3,?V0 + 11
        MOV     DPTR,#__Constant_bf99999a
        MOV     R0,#?V0 + 12
        LCALL   ?L_MOV_X
        MOV     R0,#?V0 + 0
        MOV     R1,#?V0 + 12
        LCALL   ?FLT_ADD
        MOV     DPTR,#__Constant_42c80000
        MOV     R0,#?V0 + 12
        LCALL   ?L_MOV_X
        MOV     R0,#?V0 + 0
        MOV     R1,#?V0 + 12
        LCALL   ?FLT_MUL
        MOV     DPTR,#__Constant_40066666
        MOV     R0,#?V0 + 12
        LCALL   ?L_MOV_X
        MOV     R0,#?V0 + 0
        MOV     R1,#?V0 + 12
        LCALL   ?FLT_DIV
//   29   sprintf(buffer,"adcValue = %d,vol = %.2f,mq2 = %.2f\r\n",adcValue,vol,percentage);
        ; Setup parameters for call to function sprintf
        MOV     R0,#?V0 + 0
        LCALL   ?PUSH_XSTACK_I_FOUR
        CFI CFA_XSP16 add(XSP16, 58)
        MOV     R0,#?V0 + 8
        LCALL   ?PUSH_XSTACK_I_FOUR
        CFI CFA_XSP16 add(XSP16, 62)
        MOV     R0,#?V0 + 4
        LCALL   ?PUSH_XSTACK_I_TWO
        CFI CFA_XSP16 add(XSP16, 64)
        MOV     R4,#`?<Constant "adcValue = %d,vol = %...">` & 0xff
        MOV     R5,#(`?<Constant "adcValue = %d,vol = %...">` >> 8) & 0xff
        MOV     A,#0xa
        LCALL   ?XSTACK_DISP0_8
        MOV     R2,DPL
        MOV     R3,DPH
        LCALL   ??sprintf?relay
        MOV     A,#0xa
        LCALL   ?DEALLOC_XSTACK8
        CFI CFA_XSP16 add(XSP16, 54)
//   30   HalUARTWrite(0,buffer,osal_strlen(buffer));
        ; Setup parameters for call to function HalUARTWrite
        ; Setup parameters for call to function osal_strlen
        LCALL   ?Subroutine2 & 0xFFFF
//   31   
//   32   if(percentage>=10.0&&percentage<=100.0){
??CrossCallReturnLabel_0:
        LCALL   ?L_MOV_X
        MOV     R0,#?V0 + 0
        MOV     R1,#?V0 + 4
        LCALL   ?FLT_GE
        JNC     ??GetMq2_0
        MOV     DPTR,#__Constant_42c80001
        MOV     R0,#?V0 + 4
        LCALL   ?L_MOV_X
        MOV     R0,#?V0 + 0
        MOV     R1,#?V0 + 4
        LCALL   ?FLT_LT
        JNC     ??GetMq2_0
//   33      HalLedSet(HAL_LED_1, HAL_LED_MODE_FLASH);
        ; Setup parameters for call to function HalLedSet
        MOV     R2,#0x4
        SJMP    ??GetMq2_1
//   34   }else{
//   35      HalLedSet(HAL_LED_1, HAL_LED_MODE_OFF);
??GetMq2_0:
        ; Setup parameters for call to function HalLedSet
        MOV     R2,#0x0
??GetMq2_1:
        MOV     R1,#0x1
        CFI EndBlock cfiBlock1
//   36   }
        REQUIRE ?Subroutine0
        ; // Fall through to label ?Subroutine0
//   37   return (uint8)percentage;
//   38 }

        RSEG BANKED_CODE:CODE:NOROOT(0)
?Subroutine0:
        CFI Block cfiBlock2 Using cfiCommon0
        CFI NoFunction
        CFI CFA_SP SP+0
        CFI CFA_XSP16 add(XSP16, 54)
        CFI VB load(1, XDATA, add(CFA_XSP16, literal(-23)))
        CFI DPL0 load(1, XDATA, add(CFA_XSP16, literal(-2)))
        CFI DPH0 load(1, XDATA, add(CFA_XSP16, literal(-1)))
        CFI R6 load(1, XDATA, add(CFA_XSP16, literal(-24)))
        CFI R7 load(1, XDATA, add(CFA_XSP16, literal(-6)))
        CFI V0 load(1, XDATA, add(CFA_XSP16, literal(-22)))
        CFI V1 load(1, XDATA, add(CFA_XSP16, literal(-21)))
        CFI V2 load(1, XDATA, add(CFA_XSP16, literal(-20)))
        CFI V3 load(1, XDATA, add(CFA_XSP16, literal(-19)))
        CFI V4 load(1, XDATA, add(CFA_XSP16, literal(-18)))
        CFI V5 load(1, XDATA, add(CFA_XSP16, literal(-17)))
        CFI V6 load(1, XDATA, add(CFA_XSP16, literal(-16)))
        CFI V7 load(1, XDATA, add(CFA_XSP16, literal(-15)))
        CFI V8 load(1, XDATA, add(CFA_XSP16, literal(-14)))
        CFI V9 load(1, XDATA, add(CFA_XSP16, literal(-13)))
        CFI V10 load(1, XDATA, add(CFA_XSP16, literal(-12)))
        CFI V11 load(1, XDATA, add(CFA_XSP16, literal(-11)))
        CFI V12 load(1, XDATA, add(CFA_XSP16, literal(-10)))
        CFI V13 load(1, XDATA, add(CFA_XSP16, literal(-9)))
        CFI V14 load(1, XDATA, add(CFA_XSP16, literal(-8)))
        CFI V15 load(1, XDATA, add(CFA_XSP16, literal(-7)))
        CFI ?BRET_EXT load(1, XDATA, add(CFA_XSP16, literal(-3)))
        CFI ?RET_HIGH load(1, XDATA, add(CFA_XSP16, literal(-4)))
        CFI ?RET_LOW load(1, XDATA, add(CFA_XSP16, literal(-5)))
        LCALL   ??HalLedSet?relay
        MOV     R0,#?V0 + 0
        LCALL   ?FLT_TO_L
        MOV     R1,?V0 + 0
        MOV     A,#0x1e
        LCALL   ?DEALLOC_XSTACK8
        CFI CFA_XSP16 add(XSP16, 24)
        MOV     R7,#0x10
        LJMP    ?BANKED_LEAVE_XDATA
        CFI EndBlock cfiBlock2
//   39 
//   40 //读取MQ7的浓度

        RSEG BANKED_CODE:CODE:NOROOT(0)
//   41 uint8 GetMq7(void){
GetMq7:
        CFI Block cfiBlock3 Using cfiCommon0
        CFI Function GetMq7
        CODE
        FUNCALL GetMq7, readAdc
        LOCFRAME ISTACK, 0, STACK
        LOCFRAME PSTACK, 0, STACK
        LOCFRAME XSTACK, 54, STACK
        LOCFRAME IOVERLAY, 0, STATIC
        LOCFRAME DOVERLAY, 0, STATIC
        ARGFRAME ISTACK, 0, STACK
        ARGFRAME PSTACK, 0, STACK
        ARGFRAME XSTACK, 54, STACK
        ARGFRAME IOVERLAY, 0, STATIC
        ARGFRAME DOVERLAY, 0, STATIC
        FUNCALL GetMq7, sprintf
        LOCFRAME ISTACK, 0, STACK
        LOCFRAME PSTACK, 0, STACK
        LOCFRAME XSTACK, 64, STACK
        LOCFRAME IOVERLAY, 0, STATIC
        LOCFRAME DOVERLAY, 0, STATIC
        ARGFRAME ISTACK, 0, STACK
        ARGFRAME PSTACK, 0, STACK
        ARGFRAME XSTACK, 64, STACK
        ARGFRAME IOVERLAY, 0, STATIC
        ARGFRAME DOVERLAY, 0, STATIC
        FUNCALL GetMq7, osal_strlen
        LOCFRAME ISTACK, 0, STACK
        LOCFRAME PSTACK, 0, STACK
        LOCFRAME XSTACK, 54, STACK
        LOCFRAME IOVERLAY, 0, STATIC
        LOCFRAME DOVERLAY, 0, STATIC
        ARGFRAME ISTACK, 0, STACK
        ARGFRAME PSTACK, 0, STACK
        ARGFRAME XSTACK, 54, STACK
        ARGFRAME IOVERLAY, 0, STATIC
        ARGFRAME DOVERLAY, 0, STATIC
        FUNCALL GetMq7, HalUARTWrite
        LOCFRAME ISTACK, 0, STACK
        LOCFRAME PSTACK, 0, STACK
        LOCFRAME XSTACK, 54, STACK
        LOCFRAME IOVERLAY, 0, STATIC
        LOCFRAME DOVERLAY, 0, STATIC
        ARGFRAME ISTACK, 0, STACK
        ARGFRAME PSTACK, 0, STACK
        ARGFRAME XSTACK, 54, STACK
        ARGFRAME IOVERLAY, 0, STATIC
        ARGFRAME DOVERLAY, 0, STATIC
        FUNCALL GetMq7, HalLedSet
        LOCFRAME ISTACK, 0, STACK
        LOCFRAME PSTACK, 0, STACK
        LOCFRAME XSTACK, 54, STACK
        LOCFRAME IOVERLAY, 0, STATIC
        LOCFRAME DOVERLAY, 0, STATIC
        ARGFRAME ISTACK, 0, STACK
        ARGFRAME PSTACK, 0, STACK
        ARGFRAME XSTACK, 54, STACK
        ARGFRAME IOVERLAY, 0, STATIC
        ARGFRAME DOVERLAY, 0, STATIC
        FUNCALL GetMq7, HalLedSet
        LOCFRAME ISTACK, 0, STACK
        LOCFRAME PSTACK, 0, STACK
        LOCFRAME XSTACK, 54, STACK
        LOCFRAME IOVERLAY, 0, STATIC
        LOCFRAME DOVERLAY, 0, STATIC
        ARGFRAME ISTACK, 0, STACK
        ARGFRAME PSTACK, 0, STACK
        ARGFRAME XSTACK, 54, STACK
        ARGFRAME IOVERLAY, 0, STATIC
        ARGFRAME DOVERLAY, 0, STATIC
        MOV     A,#-0x18
        LCALL   ?BANKED_ENTER_XDATA
        CFI DPH0 load(1, XDATA, add(CFA_XSP16, literal(-1)))
        CFI DPL0 load(1, XDATA, add(CFA_XSP16, literal(-2)))
        CFI ?BRET_EXT load(1, XDATA, add(CFA_XSP16, literal(-3)))
        CFI ?RET_HIGH load(1, XDATA, add(CFA_XSP16, literal(-4)))
        CFI ?RET_LOW load(1, XDATA, add(CFA_XSP16, literal(-5)))
        CFI R7 load(1, XDATA, add(CFA_XSP16, literal(-6)))
        CFI V15 load(1, XDATA, add(CFA_XSP16, literal(-7)))
        CFI V14 load(1, XDATA, add(CFA_XSP16, literal(-8)))
        CFI V13 load(1, XDATA, add(CFA_XSP16, literal(-9)))
        CFI V12 load(1, XDATA, add(CFA_XSP16, literal(-10)))
        CFI V11 load(1, XDATA, add(CFA_XSP16, literal(-11)))
        CFI V10 load(1, XDATA, add(CFA_XSP16, literal(-12)))
        CFI V9 load(1, XDATA, add(CFA_XSP16, literal(-13)))
        CFI V8 load(1, XDATA, add(CFA_XSP16, literal(-14)))
        CFI V7 load(1, XDATA, add(CFA_XSP16, literal(-15)))
        CFI V6 load(1, XDATA, add(CFA_XSP16, literal(-16)))
        CFI V5 load(1, XDATA, add(CFA_XSP16, literal(-17)))
        CFI V4 load(1, XDATA, add(CFA_XSP16, literal(-18)))
        CFI V3 load(1, XDATA, add(CFA_XSP16, literal(-19)))
        CFI V2 load(1, XDATA, add(CFA_XSP16, literal(-20)))
        CFI V1 load(1, XDATA, add(CFA_XSP16, literal(-21)))
        CFI V0 load(1, XDATA, add(CFA_XSP16, literal(-22)))
        CFI VB load(1, XDATA, add(CFA_XSP16, literal(-23)))
        CFI R6 load(1, XDATA, add(CFA_XSP16, literal(-24)))
        CFI CFA_SP SP+0
        CFI CFA_XSP16 add(XSP16, 24)
        ; Saved register size: 24
        ; Auto size: 30
        MOV     A,#-0x1e
        LCALL   ?ALLOC_XSTACK8
        CFI CFA_XSP16 add(XSP16, 54)
//   42   char buffer[30];
//   43   unsigned int adcValue=0;
//   44   float percentage=0.0;
//   45   float vol =0.0;
//   46   adcValue = readAdc(1);
        ; Setup parameters for call to function readAdc
        MOV     R1,#0x1
        LCALL   ?Subroutine3 & 0xFFFF
//   47   vol = (adcValue*1.0/8191.0)*5.0;
??CrossCallReturnLabel_3:
        LCALL   ?UL_TO_FLT
        MOV     DPTR,#__Constant_45fff800
        MOV     R0,#?V0 + 0
        LCALL   ?L_MOV_X
        MOV     R0,#?V0 + 8
        MOV     R1,#?V0 + 0
        LCALL   ?FLT_DIV
        MOV     DPTR,#__Constant_40a00000
        MOV     R0,#?V0 + 0
        LCALL   ?L_MOV_X
        MOV     R0,#?V0 + 8
        MOV     R1,#?V0 + 0
        LCALL   ?FLT_MUL
//   48   percentage = ((vol-1.9)*100.0)/5.0;
        MOV     ?V0 + 0,?V0 + 8
        MOV     ?V0 + 1,?V0 + 9
        MOV     ?V0 + 2,?V0 + 10
        MOV     ?V0 + 3,?V0 + 11
        MOV     DPTR,#__Constant_bff33333
        MOV     R0,#?V0 + 12
        LCALL   ?L_MOV_X
        MOV     R0,#?V0 + 0
        MOV     R1,#?V0 + 12
        LCALL   ?FLT_ADD
        MOV     DPTR,#__Constant_42c80000
        MOV     R0,#?V0 + 12
        LCALL   ?L_MOV_X
        MOV     R0,#?V0 + 0
        MOV     R1,#?V0 + 12
        LCALL   ?FLT_MUL
        MOV     DPTR,#__Constant_40a00000
        MOV     R0,#?V0 + 12
        LCALL   ?L_MOV_X
        MOV     R0,#?V0 + 0
        MOV     R1,#?V0 + 12
        LCALL   ?FLT_DIV
//   49   sprintf(buffer,"adcValue = %d,vol = %.2f, mq7  = %.2f\r\n",adcValue,vol,percentage);
        ; Setup parameters for call to function sprintf
        MOV     R0,#?V0 + 0
        LCALL   ?PUSH_XSTACK_I_FOUR
        CFI CFA_XSP16 add(XSP16, 58)
        MOV     R0,#?V0 + 8
        LCALL   ?PUSH_XSTACK_I_FOUR
        CFI CFA_XSP16 add(XSP16, 62)
        MOV     R0,#?V0 + 4
        LCALL   ?PUSH_XSTACK_I_TWO
        CFI CFA_XSP16 add(XSP16, 64)
        MOV     R4,#`?<Constant "adcValue = %d,vol = %...">_1` & 0xff
        MOV     R5,#(`?<Constant "adcValue = %d,vol = %...">_1` >> 8) & 0xff
        MOV     A,#0xa
        LCALL   ?XSTACK_DISP0_8
        MOV     R2,DPL
        MOV     R3,DPH
        LCALL   ??sprintf?relay
        MOV     A,#0xa
        LCALL   ?DEALLOC_XSTACK8
        CFI CFA_XSP16 add(XSP16, 54)
//   50   HalUARTWrite(0,buffer,osal_strlen(buffer));
        ; Setup parameters for call to function HalUARTWrite
        ; Setup parameters for call to function osal_strlen
        LCALL   ?Subroutine2 & 0xFFFF
//   51   
//   52   if(percentage>=10.0&&percentage<=100.0){
??CrossCallReturnLabel_1:
        LCALL   ?L_MOV_X
        MOV     R0,#?V0 + 0
        MOV     R1,#?V0 + 4
        LCALL   ?FLT_GE
        JNC     ??GetMq7_0
        MOV     DPTR,#__Constant_42c80001
        MOV     R0,#?V0 + 4
        LCALL   ?L_MOV_X
        MOV     R0,#?V0 + 0
        MOV     R1,#?V0 + 4
        LCALL   ?FLT_LT
        JNC     ??GetMq7_0
//   53      HalLedSet(HAL_LED_2, HAL_LED_MODE_FLASH);
        ; Setup parameters for call to function HalLedSet
        MOV     R2,#0x4
        SJMP    ??GetMq7_1
//   54   }else{
//   55      HalLedSet(HAL_LED_2, HAL_LED_MODE_OFF);
??GetMq7_0:
        ; Setup parameters for call to function HalLedSet
        MOV     R2,#0x0
??GetMq7_1:
        MOV     R1,#0x2
//   56   }
        LJMP    ?Subroutine0 & 0xFFFF
        CFI EndBlock cfiBlock3
//   57   return (uint8)percentage;
//   58 }

        RSEG BANKED_CODE:CODE:NOROOT(0)
?Subroutine3:
        CFI Block cfiCond4 Using cfiCommon0
        CFI NoFunction
        CFI Conditional ??CrossCallReturnLabel_2
        CFI R6 load(1, XDATA, add(CFA_XSP16, literal(-24)))
        CFI VB load(1, XDATA, add(CFA_XSP16, literal(-23)))
        CFI V0 load(1, XDATA, add(CFA_XSP16, literal(-22)))
        CFI V1 load(1, XDATA, add(CFA_XSP16, literal(-21)))
        CFI V2 load(1, XDATA, add(CFA_XSP16, literal(-20)))
        CFI V3 load(1, XDATA, add(CFA_XSP16, literal(-19)))
        CFI V4 load(1, XDATA, add(CFA_XSP16, literal(-18)))
        CFI V5 load(1, XDATA, add(CFA_XSP16, literal(-17)))
        CFI V6 load(1, XDATA, add(CFA_XSP16, literal(-16)))
        CFI V7 load(1, XDATA, add(CFA_XSP16, literal(-15)))
        CFI V8 load(1, XDATA, add(CFA_XSP16, literal(-14)))
        CFI V9 load(1, XDATA, add(CFA_XSP16, literal(-13)))
        CFI V10 load(1, XDATA, add(CFA_XSP16, literal(-12)))
        CFI V11 load(1, XDATA, add(CFA_XSP16, literal(-11)))
        CFI V12 load(1, XDATA, add(CFA_XSP16, literal(-10)))
        CFI V13 load(1, XDATA, add(CFA_XSP16, literal(-9)))
        CFI V14 load(1, XDATA, add(CFA_XSP16, literal(-8)))
        CFI V15 load(1, XDATA, add(CFA_XSP16, literal(-7)))
        CFI R7 load(1, XDATA, add(CFA_XSP16, literal(-6)))
        CFI ?RET_LOW load(1, XDATA, add(CFA_XSP16, literal(-5)))
        CFI ?RET_HIGH load(1, XDATA, add(CFA_XSP16, literal(-4)))
        CFI ?BRET_EXT load(1, XDATA, add(CFA_XSP16, literal(-3)))
        CFI DPL0 load(1, XDATA, add(CFA_XSP16, literal(-2)))
        CFI DPH0 load(1, XDATA, add(CFA_XSP16, literal(-1)))
        CFI CFA_SP SP+0
        CFI CFA_XSP16 add(XSP16, 54)
        CFI Block cfiCond5 Using cfiCommon0
        CFI (cfiCond5) NoFunction
        CFI (cfiCond5) Conditional ??CrossCallReturnLabel_3
        CFI (cfiCond5) R6 load(1, XDATA, add(CFA_XSP16, literal(-24)))
        CFI (cfiCond5) VB load(1, XDATA, add(CFA_XSP16, literal(-23)))
        CFI (cfiCond5) V0 load(1, XDATA, add(CFA_XSP16, literal(-22)))
        CFI (cfiCond5) V1 load(1, XDATA, add(CFA_XSP16, literal(-21)))
        CFI (cfiCond5) V2 load(1, XDATA, add(CFA_XSP16, literal(-20)))
        CFI (cfiCond5) V3 load(1, XDATA, add(CFA_XSP16, literal(-19)))
        CFI (cfiCond5) V4 load(1, XDATA, add(CFA_XSP16, literal(-18)))
        CFI (cfiCond5) V5 load(1, XDATA, add(CFA_XSP16, literal(-17)))
        CFI (cfiCond5) V6 load(1, XDATA, add(CFA_XSP16, literal(-16)))
        CFI (cfiCond5) V7 load(1, XDATA, add(CFA_XSP16, literal(-15)))
        CFI (cfiCond5) V8 load(1, XDATA, add(CFA_XSP16, literal(-14)))
        CFI (cfiCond5) V9 load(1, XDATA, add(CFA_XSP16, literal(-13)))
        CFI (cfiCond5) V10 load(1, XDATA, add(CFA_XSP16, literal(-12)))
        CFI (cfiCond5) V11 load(1, XDATA, add(CFA_XSP16, literal(-11)))
        CFI (cfiCond5) V12 load(1, XDATA, add(CFA_XSP16, literal(-10)))
        CFI (cfiCond5) V13 load(1, XDATA, add(CFA_XSP16, literal(-9)))
        CFI (cfiCond5) V14 load(1, XDATA, add(CFA_XSP16, literal(-8)))
        CFI (cfiCond5) V15 load(1, XDATA, add(CFA_XSP16, literal(-7)))
        CFI (cfiCond5) R7 load(1, XDATA, add(CFA_XSP16, literal(-6)))
        CFI (cfiCond5) ?RET_LOW load(1, XDATA, add(CFA_XSP16, literal(-5)))
        CFI (cfiCond5) ?RET_HIGH load(1, XDATA, add(CFA_XSP16, literal(-4)))
        CFI (cfiCond5) ?BRET_EXT load(1, XDATA, add(CFA_XSP16, literal(-3)))
        CFI (cfiCond5) DPL0 load(1, XDATA, add(CFA_XSP16, literal(-2)))
        CFI (cfiCond5) DPH0 load(1, XDATA, add(CFA_XSP16, literal(-1)))
        CFI (cfiCond5) CFA_SP SP+0
        CFI (cfiCond5) CFA_XSP16 add(XSP16, 54)
        CFI Block cfiPicker6 Using cfiCommon1
        CFI (cfiPicker6) NoFunction
        CFI (cfiPicker6) Picker
        LCALL   ??readAdc?relay
        MOV     ?V0 + 4,R2
        MOV     ?V0 + 5,R3
        MOV     ?V0 + 8,R2
        MOV     ?V0 + 9,R3
        CLR     A
        MOV     ?V0 + 10,A
        MOV     ?V0 + 11,A
        MOV     R0,#?V0 + 8
        RET
        CFI EndBlock cfiCond4
        CFI EndBlock cfiCond5
        CFI EndBlock cfiPicker6

        RSEG BANKED_CODE:CODE:NOROOT(0)
?Subroutine2:
        CFI Block cfiCond7 Using cfiCommon0
        CFI NoFunction
        CFI Conditional ??CrossCallReturnLabel_0
        CFI R6 load(1, XDATA, add(CFA_XSP16, literal(-24)))
        CFI VB load(1, XDATA, add(CFA_XSP16, literal(-23)))
        CFI V0 load(1, XDATA, add(CFA_XSP16, literal(-22)))
        CFI V1 load(1, XDATA, add(CFA_XSP16, literal(-21)))
        CFI V2 load(1, XDATA, add(CFA_XSP16, literal(-20)))
        CFI V3 load(1, XDATA, add(CFA_XSP16, literal(-19)))
        CFI V4 load(1, XDATA, add(CFA_XSP16, literal(-18)))
        CFI V5 load(1, XDATA, add(CFA_XSP16, literal(-17)))
        CFI V6 load(1, XDATA, add(CFA_XSP16, literal(-16)))
        CFI V7 load(1, XDATA, add(CFA_XSP16, literal(-15)))
        CFI V8 load(1, XDATA, add(CFA_XSP16, literal(-14)))
        CFI V9 load(1, XDATA, add(CFA_XSP16, literal(-13)))
        CFI V10 load(1, XDATA, add(CFA_XSP16, literal(-12)))
        CFI V11 load(1, XDATA, add(CFA_XSP16, literal(-11)))
        CFI V12 load(1, XDATA, add(CFA_XSP16, literal(-10)))
        CFI V13 load(1, XDATA, add(CFA_XSP16, literal(-9)))
        CFI V14 load(1, XDATA, add(CFA_XSP16, literal(-8)))
        CFI V15 load(1, XDATA, add(CFA_XSP16, literal(-7)))
        CFI R7 load(1, XDATA, add(CFA_XSP16, literal(-6)))
        CFI ?RET_LOW load(1, XDATA, add(CFA_XSP16, literal(-5)))
        CFI ?RET_HIGH load(1, XDATA, add(CFA_XSP16, literal(-4)))
        CFI ?BRET_EXT load(1, XDATA, add(CFA_XSP16, literal(-3)))
        CFI DPL0 load(1, XDATA, add(CFA_XSP16, literal(-2)))
        CFI DPH0 load(1, XDATA, add(CFA_XSP16, literal(-1)))
        CFI CFA_SP SP+0
        CFI CFA_XSP16 add(XSP16, 54)
        CFI Block cfiCond8 Using cfiCommon0
        CFI (cfiCond8) NoFunction
        CFI (cfiCond8) Conditional ??CrossCallReturnLabel_1
        CFI (cfiCond8) R6 load(1, XDATA, add(CFA_XSP16, literal(-24)))
        CFI (cfiCond8) VB load(1, XDATA, add(CFA_XSP16, literal(-23)))
        CFI (cfiCond8) V0 load(1, XDATA, add(CFA_XSP16, literal(-22)))
        CFI (cfiCond8) V1 load(1, XDATA, add(CFA_XSP16, literal(-21)))
        CFI (cfiCond8) V2 load(1, XDATA, add(CFA_XSP16, literal(-20)))
        CFI (cfiCond8) V3 load(1, XDATA, add(CFA_XSP16, literal(-19)))
        CFI (cfiCond8) V4 load(1, XDATA, add(CFA_XSP16, literal(-18)))
        CFI (cfiCond8) V5 load(1, XDATA, add(CFA_XSP16, literal(-17)))
        CFI (cfiCond8) V6 load(1, XDATA, add(CFA_XSP16, literal(-16)))
        CFI (cfiCond8) V7 load(1, XDATA, add(CFA_XSP16, literal(-15)))
        CFI (cfiCond8) V8 load(1, XDATA, add(CFA_XSP16, literal(-14)))
        CFI (cfiCond8) V9 load(1, XDATA, add(CFA_XSP16, literal(-13)))
        CFI (cfiCond8) V10 load(1, XDATA, add(CFA_XSP16, literal(-12)))
        CFI (cfiCond8) V11 load(1, XDATA, add(CFA_XSP16, literal(-11)))
        CFI (cfiCond8) V12 load(1, XDATA, add(CFA_XSP16, literal(-10)))
        CFI (cfiCond8) V13 load(1, XDATA, add(CFA_XSP16, literal(-9)))
        CFI (cfiCond8) V14 load(1, XDATA, add(CFA_XSP16, literal(-8)))
        CFI (cfiCond8) V15 load(1, XDATA, add(CFA_XSP16, literal(-7)))
        CFI (cfiCond8) R7 load(1, XDATA, add(CFA_XSP16, literal(-6)))
        CFI (cfiCond8) ?RET_LOW load(1, XDATA, add(CFA_XSP16, literal(-5)))
        CFI (cfiCond8) ?RET_HIGH load(1, XDATA, add(CFA_XSP16, literal(-4)))
        CFI (cfiCond8) ?BRET_EXT load(1, XDATA, add(CFA_XSP16, literal(-3)))
        CFI (cfiCond8) DPL0 load(1, XDATA, add(CFA_XSP16, literal(-2)))
        CFI (cfiCond8) DPH0 load(1, XDATA, add(CFA_XSP16, literal(-1)))
        CFI (cfiCond8) CFA_SP SP+0
        CFI (cfiCond8) CFA_XSP16 add(XSP16, 54)
        CFI Block cfiPicker9 Using cfiCommon1
        CFI (cfiPicker9) NoFunction
        CFI (cfiPicker9) Picker
        MOV     DPL,?XSP + 0
        MOV     DPH,?XSP + 1
        LCALL   ?Subroutine6 & 0xFFFF
??CrossCallReturnLabel_6:
        MOV     DPL,?XSP + 0
        MOV     DPH,?XSP + 1
        MOV     R2,DPL
        MOV     R3,DPH
        MOV     R1,#0x0
        LCALL   ??HalUARTWrite?relay
        MOV     DPTR,#__Constant_41200000
        MOV     R0,#?V0 + 4
        RET
        CFI EndBlock cfiCond7
        CFI EndBlock cfiCond8
        CFI EndBlock cfiPicker9
//   59 
//   60 

        RSEG BANKED_CODE:CODE:NOROOT(0)
//   61 void zb_StartConfirm( uint8 status )
zb_StartConfirm:
        CFI Block cfiBlock10 Using cfiCommon0
        CFI Function zb_StartConfirm
        CODE
//   62 {
        FUNCALL zb_StartConfirm, HalUARTOpen
        LOCFRAME ISTACK, 0, STACK
        LOCFRAME PSTACK, 0, STACK
        LOCFRAME XSTACK, 95, STACK
        LOCFRAME IOVERLAY, 0, STATIC
        LOCFRAME DOVERLAY, 0, STATIC
        ARGFRAME ISTACK, 0, STACK
        ARGFRAME PSTACK, 0, STACK
        ARGFRAME XSTACK, 95, STACK
        ARGFRAME IOVERLAY, 0, STATIC
        ARGFRAME DOVERLAY, 0, STATIC
        FUNCALL zb_StartConfirm, HalLedSet
        LOCFRAME ISTACK, 0, STACK
        LOCFRAME PSTACK, 0, STACK
        LOCFRAME XSTACK, 95, STACK
        LOCFRAME IOVERLAY, 0, STATIC
        LOCFRAME DOVERLAY, 0, STATIC
        ARGFRAME ISTACK, 0, STACK
        ARGFRAME PSTACK, 0, STACK
        ARGFRAME XSTACK, 95, STACK
        ARGFRAME IOVERLAY, 0, STATIC
        ARGFRAME DOVERLAY, 0, STATIC
        FUNCALL zb_StartConfirm, HalLedSet
        LOCFRAME ISTACK, 0, STACK
        LOCFRAME PSTACK, 0, STACK
        LOCFRAME XSTACK, 95, STACK
        LOCFRAME IOVERLAY, 0, STATIC
        LOCFRAME DOVERLAY, 0, STATIC
        ARGFRAME ISTACK, 0, STACK
        ARGFRAME PSTACK, 0, STACK
        ARGFRAME XSTACK, 95, STACK
        ARGFRAME IOVERLAY, 0, STATIC
        ARGFRAME DOVERLAY, 0, STATIC
        FUNCALL zb_StartConfirm, osal_strlen
        LOCFRAME ISTACK, 0, STACK
        LOCFRAME PSTACK, 0, STACK
        LOCFRAME XSTACK, 95, STACK
        LOCFRAME IOVERLAY, 0, STATIC
        LOCFRAME DOVERLAY, 0, STATIC
        ARGFRAME ISTACK, 0, STACK
        ARGFRAME PSTACK, 0, STACK
        ARGFRAME XSTACK, 95, STACK
        ARGFRAME IOVERLAY, 0, STATIC
        ARGFRAME DOVERLAY, 0, STATIC
        FUNCALL zb_StartConfirm, HalUARTWrite
        LOCFRAME ISTACK, 0, STACK
        LOCFRAME PSTACK, 0, STACK
        LOCFRAME XSTACK, 95, STACK
        LOCFRAME IOVERLAY, 0, STATIC
        LOCFRAME DOVERLAY, 0, STATIC
        ARGFRAME ISTACK, 0, STACK
        ARGFRAME PSTACK, 0, STACK
        ARGFRAME XSTACK, 95, STACK
        ARGFRAME IOVERLAY, 0, STATIC
        ARGFRAME DOVERLAY, 0, STATIC
        FUNCALL zb_StartConfirm, zb_SendDataRequest
        LOCFRAME ISTACK, 0, STACK
        LOCFRAME PSTACK, 0, STACK
        LOCFRAME XSTACK, 100, STACK
        LOCFRAME IOVERLAY, 0, STATIC
        LOCFRAME DOVERLAY, 0, STATIC
        ARGFRAME ISTACK, 0, STACK
        ARGFRAME PSTACK, 0, STACK
        ARGFRAME XSTACK, 100, STACK
        ARGFRAME IOVERLAY, 0, STATIC
        ARGFRAME DOVERLAY, 0, STATIC
        FUNCALL zb_StartConfirm, osal_start_timerEx
        LOCFRAME ISTACK, 0, STACK
        LOCFRAME PSTACK, 0, STACK
        LOCFRAME XSTACK, 95, STACK
        LOCFRAME IOVERLAY, 0, STATIC
        LOCFRAME DOVERLAY, 0, STATIC
        ARGFRAME ISTACK, 0, STACK
        ARGFRAME PSTACK, 0, STACK
        ARGFRAME XSTACK, 95, STACK
        ARGFRAME IOVERLAY, 0, STATIC
        ARGFRAME DOVERLAY, 0, STATIC
        FUNCALL zb_StartConfirm, osal_start_timerEx
        LOCFRAME ISTACK, 0, STACK
        LOCFRAME PSTACK, 0, STACK
        LOCFRAME XSTACK, 95, STACK
        LOCFRAME IOVERLAY, 0, STATIC
        LOCFRAME DOVERLAY, 0, STATIC
        ARGFRAME ISTACK, 0, STACK
        ARGFRAME PSTACK, 0, STACK
        ARGFRAME XSTACK, 95, STACK
        ARGFRAME IOVERLAY, 0, STATIC
        ARGFRAME DOVERLAY, 0, STATIC
        MOV     A,#-0xa
        LCALL   ?BANKED_ENTER_XDATA
        CFI DPH0 load(1, XDATA, add(CFA_XSP16, literal(-1)))
        CFI DPL0 load(1, XDATA, add(CFA_XSP16, literal(-2)))
        CFI ?BRET_EXT load(1, XDATA, add(CFA_XSP16, literal(-3)))
        CFI ?RET_HIGH load(1, XDATA, add(CFA_XSP16, literal(-4)))
        CFI ?RET_LOW load(1, XDATA, add(CFA_XSP16, literal(-5)))
        CFI R7 load(1, XDATA, add(CFA_XSP16, literal(-6)))
        CFI V1 load(1, XDATA, add(CFA_XSP16, literal(-7)))
        CFI V0 load(1, XDATA, add(CFA_XSP16, literal(-8)))
        CFI VB load(1, XDATA, add(CFA_XSP16, literal(-9)))
        CFI R6 load(1, XDATA, add(CFA_XSP16, literal(-10)))
        CFI CFA_SP SP+0
        CFI CFA_XSP16 add(XSP16, 10)
        ; Saved register size: 10
        ; Auto size: 85
        MOV     A,#-0x55
        LCALL   ?ALLOC_XSTACK8
        CFI CFA_XSP16 add(XSP16, 95)
        MOV     A,R1
//   63   if(status==ZSUCCESS)
        JZ      $+5
        LJMP    ??CrossCallReturnLabel_11 & 0xFFFF
//   64   {   
//   65     halUARTCfg_t uartcfg;
//   66     uartcfg.baudRate=HAL_UART_BR_115200;
        MOV     A,#0x1
        LCALL   ?XSTACK_DISP0_8
        MOV     A,#0x4
        MOVX    @DPTR,A
//   67     uartcfg.flowControl=FALSE;
        MOV     A,#0x2
        LCALL   ?XSTACK_DISP0_8
        CLR     A
        MOVX    @DPTR,A
//   68     uartcfg.callBackFunc=NULL;
        MOV     A,#0x1b
        LCALL   ?XSTACK_DISP0_8
        CLR     A
        MOVX    @DPTR,A
        INC     DPTR
        MOVX    @DPTR,A
//   69     HalUARTOpen(HAL_UART_PORT_0,&uartcfg);
        ; Setup parameters for call to function HalUARTOpen
        MOV     DPL,?XSP + 0
        MOV     DPH,?XSP + 1
        MOV     R2,DPL
        MOV     R3,DPH
        MOV     R1,A
        LCALL   ??HalUARTOpen?relay
//   70     HalLedSet(HAL_LED_1, HAL_LED_MODE_OFF);
        ; Setup parameters for call to function HalLedSet
        MOV     R2,#0x0
        MOV     R1,#0x1
        LCALL   ??HalLedSet?relay
//   71     HalLedSet(HAL_LED_2, HAL_LED_MODE_OFF);
        ; Setup parameters for call to function HalLedSet
        MOV     R2,#0x0
        MOV     R1,#0x2
        LCALL   ??HalLedSet?relay
//   72     char buf[]="The kitchenNode is successfully added to the network!\r\n";
        MOV     A,#0x1d
        LCALL   ?XSTACK_DISP0_8
        MOV     R4,DPL
        MOV     R5,DPH
        MOV     DPH,#(`?<Constant "The kitchenNode is su...">` >> 8) & 0xff
        MOV     DPL,#`?<Constant "The kitchenNode is su...">` & 0xff
        MOV     A,#0x38
        LCALL   ?MOVE_LONG8_XDATA_XDATA
//   73     HalUARTWrite(HAL_UART_PORT_0,buf,osal_strlen(buf));
        ; Setup parameters for call to function HalUARTWrite
        ; Setup parameters for call to function osal_strlen
        MOV     A,#0x1d
        LCALL   ?XSTACK_DISP0_8
        LCALL   ?Subroutine6 & 0xFFFF
??CrossCallReturnLabel_7:
        MOV     A,#0x1d
        LCALL   ?XSTACK_DISP0_8
        LCALL   ?Subroutine5 & 0xFFFF
//   74     zb_SendDataRequest(0X0,SUBNODE_JOIN_NET_CMD_ID,LEDNUM,ledIdList,0,FALSE,AF_DEFAULT_RADIUS);
??CrossCallReturnLabel_4:
        LCALL   ?PUSH_XSTACK_I_ONE
        CFI CFA_XSP16 add(XSP16, 96)
        MOV     ?V0 + 0,#0x0
        MOV     R0,#?V0 + 0
        LCALL   ?PUSH_XSTACK_I_ONE
        CFI CFA_XSP16 add(XSP16, 97)
        MOV     R0,#?V0 + 0
        LCALL   ?PUSH_XSTACK_I_ONE
        CFI CFA_XSP16 add(XSP16, 98)
        MOV     ?V0 + 0,#ledIdList & 0xff
        MOV     ?V0 + 1,#(ledIdList >> 8) & 0xff
        MOV     R0,#?V0 + 0
        LCALL   ?PUSH_XSTACK_I_TWO
        CFI CFA_XSP16 add(XSP16, 100)
        MOV     R1,#0x2
        MOV     R4,#0x1
        MOV     R5,#0x0
        MOV     R2,#0x0
        MOV     R3,#0x0
        LCALL   ??zb_SendDataRequest?relay
        MOV     A,#0x5
        LCALL   ?DEALLOC_XSTACK8
        CFI CFA_XSP16 add(XSP16, 95)
//   75     osal_start_timerEx(sapi_TaskID,READ_KITCHEN_SENSOR_DATA_EVENT,5000);
        ; Setup parameters for call to function osal_start_timerEx
        LCALL   ?Subroutine4 & 0xFFFF
//   76     osal_start_timerEx(sapi_TaskID,HEART_BEAT_TIMEOUT_EVENT,5000);
??CrossCallReturnLabel_9:
        ; Setup parameters for call to function osal_start_timerEx
        MOV     R4,#-0x78
        MOV     R5,#0x13
        MOV     R2,#0x1
        LCALL   ??Subroutine7_0 & 0xFFFF
//   77   }
//   78 }
??CrossCallReturnLabel_11:
        MOV     A,#0x55
        CFI EndBlock cfiBlock10
        REQUIRE ?Subroutine1
        ; // Fall through to label ?Subroutine1

        RSEG BANKED_CODE:CODE:NOROOT(0)
?Subroutine1:
        CFI Block cfiBlock11 Using cfiCommon0
        CFI NoFunction
        CFI CFA_SP SP+0
        CFI CFA_XSP16 add(XSP16, 95)
        CFI VB load(1, XDATA, add(CFA_XSP16, literal(-9)))
        CFI DPL0 load(1, XDATA, add(CFA_XSP16, literal(-2)))
        CFI DPH0 load(1, XDATA, add(CFA_XSP16, literal(-1)))
        CFI R6 load(1, XDATA, add(CFA_XSP16, literal(-10)))
        CFI R7 load(1, XDATA, add(CFA_XSP16, literal(-6)))
        CFI V0 load(1, XDATA, add(CFA_XSP16, literal(-8)))
        CFI V1 load(1, XDATA, add(CFA_XSP16, literal(-7)))
        CFI ?BRET_EXT load(1, XDATA, add(CFA_XSP16, literal(-3)))
        CFI ?RET_HIGH load(1, XDATA, add(CFA_XSP16, literal(-4)))
        CFI ?RET_LOW load(1, XDATA, add(CFA_XSP16, literal(-5)))
        CFI Invalid
        LCALL   ?DEALLOC_XSTACK8
        CFI CFA_XSP16 add(XSP16, 10)
        CFI Valid
        MOV     R7,#0x2
        LJMP    ?BANKED_LEAVE_XDATA
        CFI EndBlock cfiBlock11

        RSEG BANKED_CODE:CODE:NOROOT(0)
?Subroutine6:
        CFI Block cfiCond12 Using cfiCommon0
        CFI NoFunction
        CFI Conditional ??CrossCallReturnLabel_6, ??CrossCallReturnLabel_0
        CFI R6 load(1, XDATA, add(CFA_XSP16, literal(-24)))
        CFI VB load(1, XDATA, add(CFA_XSP16, literal(-23)))
        CFI V0 load(1, XDATA, add(CFA_XSP16, literal(-22)))
        CFI V1 load(1, XDATA, add(CFA_XSP16, literal(-21)))
        CFI V2 load(1, XDATA, add(CFA_XSP16, literal(-20)))
        CFI V3 load(1, XDATA, add(CFA_XSP16, literal(-19)))
        CFI V4 load(1, XDATA, add(CFA_XSP16, literal(-18)))
        CFI V5 load(1, XDATA, add(CFA_XSP16, literal(-17)))
        CFI V6 load(1, XDATA, add(CFA_XSP16, literal(-16)))
        CFI V7 load(1, XDATA, add(CFA_XSP16, literal(-15)))
        CFI V8 load(1, XDATA, add(CFA_XSP16, literal(-14)))
        CFI V9 load(1, XDATA, add(CFA_XSP16, literal(-13)))
        CFI V10 load(1, XDATA, add(CFA_XSP16, literal(-12)))
        CFI V11 load(1, XDATA, add(CFA_XSP16, literal(-11)))
        CFI V12 load(1, XDATA, add(CFA_XSP16, literal(-10)))
        CFI V13 load(1, XDATA, add(CFA_XSP16, literal(-9)))
        CFI V14 load(1, XDATA, add(CFA_XSP16, literal(-8)))
        CFI V15 load(1, XDATA, add(CFA_XSP16, literal(-7)))
        CFI R7 load(1, XDATA, add(CFA_XSP16, literal(-6)))
        CFI ?RET_LOW load(1, XDATA, add(CFA_XSP16, literal(-5)))
        CFI ?RET_HIGH load(1, XDATA, add(CFA_XSP16, literal(-4)))
        CFI ?BRET_EXT load(1, XDATA, add(CFA_XSP16, literal(-3)))
        CFI DPL0 load(1, XDATA, add(CFA_XSP16, literal(-2)))
        CFI DPH0 load(1, XDATA, add(CFA_XSP16, literal(-1)))
        CFI CFA_SP SP+0
        CFI CFA_XSP16 add(XSP16, 54)
        CFI Block cfiCond13 Using cfiCommon0
        CFI (cfiCond13) NoFunction
        CFI (cfiCond13) Conditional ??CrossCallReturnLabel_6, ??CrossCallReturnLabel_1
        CFI (cfiCond13) R6 load(1, XDATA, add(CFA_XSP16, literal(-24)))
        CFI (cfiCond13) VB load(1, XDATA, add(CFA_XSP16, literal(-23)))
        CFI (cfiCond13) V0 load(1, XDATA, add(CFA_XSP16, literal(-22)))
        CFI (cfiCond13) V1 load(1, XDATA, add(CFA_XSP16, literal(-21)))
        CFI (cfiCond13) V2 load(1, XDATA, add(CFA_XSP16, literal(-20)))
        CFI (cfiCond13) V3 load(1, XDATA, add(CFA_XSP16, literal(-19)))
        CFI (cfiCond13) V4 load(1, XDATA, add(CFA_XSP16, literal(-18)))
        CFI (cfiCond13) V5 load(1, XDATA, add(CFA_XSP16, literal(-17)))
        CFI (cfiCond13) V6 load(1, XDATA, add(CFA_XSP16, literal(-16)))
        CFI (cfiCond13) V7 load(1, XDATA, add(CFA_XSP16, literal(-15)))
        CFI (cfiCond13) V8 load(1, XDATA, add(CFA_XSP16, literal(-14)))
        CFI (cfiCond13) V9 load(1, XDATA, add(CFA_XSP16, literal(-13)))
        CFI (cfiCond13) V10 load(1, XDATA, add(CFA_XSP16, literal(-12)))
        CFI (cfiCond13) V11 load(1, XDATA, add(CFA_XSP16, literal(-11)))
        CFI (cfiCond13) V12 load(1, XDATA, add(CFA_XSP16, literal(-10)))
        CFI (cfiCond13) V13 load(1, XDATA, add(CFA_XSP16, literal(-9)))
        CFI (cfiCond13) V14 load(1, XDATA, add(CFA_XSP16, literal(-8)))
        CFI (cfiCond13) V15 load(1, XDATA, add(CFA_XSP16, literal(-7)))
        CFI (cfiCond13) R7 load(1, XDATA, add(CFA_XSP16, literal(-6)))
        CFI (cfiCond13) ?RET_LOW load(1, XDATA, add(CFA_XSP16, literal(-5)))
        CFI (cfiCond13) ?RET_HIGH load(1, XDATA, add(CFA_XSP16, literal(-4)))
        CFI (cfiCond13) ?BRET_EXT load(1, XDATA, add(CFA_XSP16, literal(-3)))
        CFI (cfiCond13) DPL0 load(1, XDATA, add(CFA_XSP16, literal(-2)))
        CFI (cfiCond13) DPH0 load(1, XDATA, add(CFA_XSP16, literal(-1)))
        CFI (cfiCond13) CFA_SP SP+0
        CFI (cfiCond13) CFA_XSP16 add(XSP16, 54)
        CFI Block cfiCond14 Using cfiCommon0
        CFI (cfiCond14) NoFunction
        CFI (cfiCond14) Conditional ??CrossCallReturnLabel_7
        CFI (cfiCond14) R6 load(1, XDATA, add(CFA_XSP16, literal(-10)))
        CFI (cfiCond14) VB load(1, XDATA, add(CFA_XSP16, literal(-9)))
        CFI (cfiCond14) V0 load(1, XDATA, add(CFA_XSP16, literal(-8)))
        CFI (cfiCond14) V1 load(1, XDATA, add(CFA_XSP16, literal(-7)))
        CFI (cfiCond14) R7 load(1, XDATA, add(CFA_XSP16, literal(-6)))
        CFI (cfiCond14) ?RET_LOW load(1, XDATA, add(CFA_XSP16, literal(-5)))
        CFI (cfiCond14) ?RET_HIGH load(1, XDATA, add(CFA_XSP16, literal(-4)))
        CFI (cfiCond14) ?BRET_EXT load(1, XDATA, add(CFA_XSP16, literal(-3)))
        CFI (cfiCond14) DPL0 load(1, XDATA, add(CFA_XSP16, literal(-2)))
        CFI (cfiCond14) DPH0 load(1, XDATA, add(CFA_XSP16, literal(-1)))
        CFI (cfiCond14) CFA_SP SP+0
        CFI (cfiCond14) CFA_XSP16 add(XSP16, 95)
        CFI Block cfiCond15 Using cfiCommon0
        CFI (cfiCond15) NoFunction
        CFI (cfiCond15) Conditional ??CrossCallReturnLabel_8
        CFI (cfiCond15) R6 load(1, XDATA, add(CFA_XSP16, literal(-10)))
        CFI (cfiCond15) VB load(1, XDATA, add(CFA_XSP16, literal(-9)))
        CFI (cfiCond15) V0 load(1, XDATA, add(CFA_XSP16, literal(-8)))
        CFI (cfiCond15) V1 load(1, XDATA, add(CFA_XSP16, literal(-7)))
        CFI (cfiCond15) R7 load(1, XDATA, add(CFA_XSP16, literal(-6)))
        CFI (cfiCond15) ?RET_LOW load(1, XDATA, add(CFA_XSP16, literal(-5)))
        CFI (cfiCond15) ?RET_HIGH load(1, XDATA, add(CFA_XSP16, literal(-4)))
        CFI (cfiCond15) ?BRET_EXT load(1, XDATA, add(CFA_XSP16, literal(-3)))
        CFI (cfiCond15) DPL0 load(1, XDATA, add(CFA_XSP16, literal(-2)))
        CFI (cfiCond15) DPH0 load(1, XDATA, add(CFA_XSP16, literal(-1)))
        CFI (cfiCond15) CFA_SP SP+0
        CFI (cfiCond15) CFA_XSP16 add(XSP16, 112)
        CFI Block cfiPicker16 Using cfiCommon1
        CFI (cfiPicker16) NoFunction
        CFI (cfiPicker16) Picker
        MOV     R2,DPL
        MOV     R3,DPH
        LCALL   ??osal_strlen?relay
        MOV     A,R2
        MOV     R4,A
        MOV     A,R3
        MOV     R5,A
        RET
        CFI EndBlock cfiCond12
        CFI EndBlock cfiCond13
        CFI EndBlock cfiCond14
        CFI EndBlock cfiCond15
        CFI EndBlock cfiPicker16
//   79 

        RSEG BANKED_CODE:CODE:NOROOT(0)
//   80 void zb_HandleOsalEvent( uint16 event )
zb_HandleOsalEvent:
        CFI Block cfiBlock17 Using cfiCommon0
        CFI Function zb_HandleOsalEvent
        CODE
//   81 {
        FUNCALL zb_HandleOsalEvent, GetMq7
        LOCFRAME ISTACK, 0, STACK
        LOCFRAME PSTACK, 0, STACK
        LOCFRAME XSTACK, 112, STACK
        LOCFRAME IOVERLAY, 0, STATIC
        LOCFRAME DOVERLAY, 0, STATIC
        ARGFRAME ISTACK, 0, STACK
        ARGFRAME PSTACK, 0, STACK
        ARGFRAME XSTACK, 112, STACK
        ARGFRAME IOVERLAY, 0, STATIC
        ARGFRAME DOVERLAY, 0, STATIC
        FUNCALL zb_HandleOsalEvent, GetMq2
        LOCFRAME ISTACK, 0, STACK
        LOCFRAME PSTACK, 0, STACK
        LOCFRAME XSTACK, 112, STACK
        LOCFRAME IOVERLAY, 0, STATIC
        LOCFRAME DOVERLAY, 0, STATIC
        ARGFRAME ISTACK, 0, STACK
        ARGFRAME PSTACK, 0, STACK
        ARGFRAME XSTACK, 112, STACK
        ARGFRAME IOVERLAY, 0, STATIC
        ARGFRAME DOVERLAY, 0, STATIC
        FUNCALL zb_HandleOsalEvent, osal_start_timerEx
        LOCFRAME ISTACK, 0, STACK
        LOCFRAME PSTACK, 0, STACK
        LOCFRAME XSTACK, 112, STACK
        LOCFRAME IOVERLAY, 0, STATIC
        LOCFRAME DOVERLAY, 0, STATIC
        ARGFRAME ISTACK, 0, STACK
        ARGFRAME PSTACK, 0, STACK
        ARGFRAME XSTACK, 112, STACK
        ARGFRAME IOVERLAY, 0, STATIC
        ARGFRAME DOVERLAY, 0, STATIC
        FUNCALL zb_HandleOsalEvent, sprintf
        LOCFRAME ISTACK, 0, STACK
        LOCFRAME PSTACK, 0, STACK
        LOCFRAME XSTACK, 116, STACK
        LOCFRAME IOVERLAY, 0, STATIC
        LOCFRAME DOVERLAY, 0, STATIC
        ARGFRAME ISTACK, 0, STACK
        ARGFRAME PSTACK, 0, STACK
        ARGFRAME XSTACK, 116, STACK
        ARGFRAME IOVERLAY, 0, STATIC
        ARGFRAME DOVERLAY, 0, STATIC
        FUNCALL zb_HandleOsalEvent, osal_strlen
        LOCFRAME ISTACK, 0, STACK
        LOCFRAME PSTACK, 0, STACK
        LOCFRAME XSTACK, 112, STACK
        LOCFRAME IOVERLAY, 0, STATIC
        LOCFRAME DOVERLAY, 0, STATIC
        ARGFRAME ISTACK, 0, STACK
        ARGFRAME PSTACK, 0, STACK
        ARGFRAME XSTACK, 112, STACK
        ARGFRAME IOVERLAY, 0, STATIC
        ARGFRAME DOVERLAY, 0, STATIC
        FUNCALL zb_HandleOsalEvent, HalUARTWrite
        LOCFRAME ISTACK, 0, STACK
        LOCFRAME PSTACK, 0, STACK
        LOCFRAME XSTACK, 112, STACK
        LOCFRAME IOVERLAY, 0, STATIC
        LOCFRAME DOVERLAY, 0, STATIC
        ARGFRAME ISTACK, 0, STACK
        ARGFRAME PSTACK, 0, STACK
        ARGFRAME XSTACK, 112, STACK
        ARGFRAME IOVERLAY, 0, STATIC
        ARGFRAME DOVERLAY, 0, STATIC
        FUNCALL zb_HandleOsalEvent, osal_strlen
        LOCFRAME ISTACK, 0, STACK
        LOCFRAME PSTACK, 0, STACK
        LOCFRAME XSTACK, 117, STACK
        LOCFRAME IOVERLAY, 0, STATIC
        LOCFRAME DOVERLAY, 0, STATIC
        ARGFRAME ISTACK, 0, STACK
        ARGFRAME PSTACK, 0, STACK
        ARGFRAME XSTACK, 117, STACK
        ARGFRAME IOVERLAY, 0, STATIC
        ARGFRAME DOVERLAY, 0, STATIC
        FUNCALL zb_HandleOsalEvent, zb_SendDataRequest
        LOCFRAME ISTACK, 0, STACK
        LOCFRAME PSTACK, 0, STACK
        LOCFRAME XSTACK, 117, STACK
        LOCFRAME IOVERLAY, 0, STATIC
        LOCFRAME DOVERLAY, 0, STATIC
        ARGFRAME ISTACK, 0, STACK
        ARGFRAME PSTACK, 0, STACK
        ARGFRAME XSTACK, 117, STACK
        ARGFRAME IOVERLAY, 0, STATIC
        ARGFRAME DOVERLAY, 0, STATIC
        FUNCALL zb_HandleOsalEvent, osal_start_timerEx
        LOCFRAME ISTACK, 0, STACK
        LOCFRAME PSTACK, 0, STACK
        LOCFRAME XSTACK, 112, STACK
        LOCFRAME IOVERLAY, 0, STATIC
        LOCFRAME DOVERLAY, 0, STATIC
        ARGFRAME ISTACK, 0, STACK
        ARGFRAME PSTACK, 0, STACK
        ARGFRAME XSTACK, 112, STACK
        ARGFRAME IOVERLAY, 0, STATIC
        ARGFRAME DOVERLAY, 0, STATIC
        FUNCALL zb_HandleOsalEvent, zb_SendDataRequest
        LOCFRAME ISTACK, 0, STACK
        LOCFRAME PSTACK, 0, STACK
        LOCFRAME XSTACK, 117, STACK
        LOCFRAME IOVERLAY, 0, STATIC
        LOCFRAME DOVERLAY, 0, STATIC
        ARGFRAME ISTACK, 0, STACK
        ARGFRAME PSTACK, 0, STACK
        ARGFRAME XSTACK, 117, STACK
        ARGFRAME IOVERLAY, 0, STATIC
        ARGFRAME DOVERLAY, 0, STATIC
        FUNCALL zb_HandleOsalEvent, osal_start_timerEx
        LOCFRAME ISTACK, 0, STACK
        LOCFRAME PSTACK, 0, STACK
        LOCFRAME XSTACK, 112, STACK
        LOCFRAME IOVERLAY, 0, STATIC
        LOCFRAME DOVERLAY, 0, STATIC
        ARGFRAME ISTACK, 0, STACK
        ARGFRAME PSTACK, 0, STACK
        ARGFRAME XSTACK, 112, STACK
        ARGFRAME IOVERLAY, 0, STATIC
        ARGFRAME DOVERLAY, 0, STATIC
        MOV     A,#-0xa
        LCALL   ?BANKED_ENTER_XDATA
        CFI DPH0 load(1, XDATA, add(CFA_XSP16, literal(-1)))
        CFI DPL0 load(1, XDATA, add(CFA_XSP16, literal(-2)))
        CFI ?BRET_EXT load(1, XDATA, add(CFA_XSP16, literal(-3)))
        CFI ?RET_HIGH load(1, XDATA, add(CFA_XSP16, literal(-4)))
        CFI ?RET_LOW load(1, XDATA, add(CFA_XSP16, literal(-5)))
        CFI R7 load(1, XDATA, add(CFA_XSP16, literal(-6)))
        CFI V1 load(1, XDATA, add(CFA_XSP16, literal(-7)))
        CFI V0 load(1, XDATA, add(CFA_XSP16, literal(-8)))
        CFI VB load(1, XDATA, add(CFA_XSP16, literal(-9)))
        CFI R6 load(1, XDATA, add(CFA_XSP16, literal(-10)))
        CFI CFA_SP SP+0
        CFI CFA_XSP16 add(XSP16, 10)
        ; Saved register size: 10
        ; Auto size: 102
        MOV     A,#-0x66
        LCALL   ?ALLOC_XSTACK8
        CFI CFA_XSP16 add(XSP16, 112)
        MOV     A,R2
        MOV     R6,A
//   82   if(event & READ_KITCHEN_SENSOR_DATA_EVENT)
        ANL     A,#0x2
        JNZ     $+5
        LJMP    ??CrossCallReturnLabel_10 & 0xFFFF
//   83   {
//   84    
//   85    uint8 sensorData[2]= {0};
        MOV     DPL,?XSP + 0
        MOV     DPH,?XSP + 1
        MOV     R4,DPL
        MOV     R5,DPH
        MOV     DPH,#(`?<Constant {0}>` >> 8) & 0xff
        MOV     DPL,#`?<Constant {0}>` & 0xff
        MOV     A,#0x2
        LCALL   ?MOVE_LONG8_XDATA_XDATA
//   86    sensorData[0]=GetMq7();
        ; Setup parameters for call to function GetMq7
        LCALL   ??GetMq7?relay
        MOV     A,R1
        MOV     DPL,?XSP + 0
        MOV     DPH,?XSP + 1
        MOVX    @DPTR,A
//   87    sensorData[1]=GetMq2();
        ; Setup parameters for call to function GetMq2
        LCALL   ??GetMq2?relay
        MOV     A,#0x1
        LCALL   ?XSTACK_DISP0_8
        MOV     A,R1
        MOVX    @DPTR,A
//   88    
//   89    
//   90    if(sensorData[0]<0||sensorData[0]>=100||sensorData[1]<0||sensorData[1]>=100){
        MOV     DPL,?XSP + 0
        MOV     DPH,?XSP + 1
        MOVX    A,@DPTR
        CLR     C
        SUBB    A,#0x64
        JNC     ??zb_HandleOsalEvent_0
        MOV     A,#0x1
        LCALL   ?XSTACK_DISP0_8
        MOVX    A,@DPTR
        CLR     C
        SUBB    A,#0x64
        JC      ??zb_HandleOsalEvent_1
//   91      osal_start_timerEx(sapi_TaskID,READ_KITCHEN_SENSOR_DATA_EVENT,5000);
??zb_HandleOsalEvent_0:
        ; Setup parameters for call to function osal_start_timerEx
        MOV     R4,#-0x78
        MOV     R5,#0x13
        MOV     R2,#0x2
        LJMP    ??zb_HandleOsalEvent_2 & 0xFFFF
//   92      return ;
//   93    }
//   94    
//   95    char buffer[100];
//   96    sprintf(buffer,"Carbon = %d,Smoke = %d\r\n",sensorData[0],sensorData[1]);
??zb_HandleOsalEvent_1:
        ; Setup parameters for call to function sprintf
        MOVX    A,@DPTR
        MOV     ?V0 + 0,A
        MOV     ?V0 + 1,#0x0
        MOV     R0,#?V0 + 0
        LCALL   ?PUSH_XSTACK_I_TWO
        CFI CFA_XSP16 add(XSP16, 114)
        MOV     A,#0x2
        LCALL   ?XSTACK_DISP0_8
        MOVX    A,@DPTR
        MOV     ?V0 + 0,A
        MOV     R0,#?V0 + 0
        LCALL   ?PUSH_XSTACK_I_TWO
        CFI CFA_XSP16 add(XSP16, 116)
        MOV     R4,#`?<Constant "Carbon = %d,Smoke = %d\\r\\n">` & 0xff
        MOV     R5,#(`?<Constant "Carbon = %d,Smoke = %d\\r\\n">` >> 8) & 0xff
        MOV     A,#0x6
        LCALL   ?XSTACK_DISP0_8
        MOV     R2,DPL
        MOV     R3,DPH
        LCALL   ??sprintf?relay
        MOV     A,#0x4
        LCALL   ?DEALLOC_XSTACK8
        CFI CFA_XSP16 add(XSP16, 112)
//   97    HalUARTWrite(0,buffer,osal_strlen(buffer));       
        ; Setup parameters for call to function HalUARTWrite
        ; Setup parameters for call to function osal_strlen
        MOV     A,#0x2
        LCALL   ?XSTACK_DISP0_8
        LCALL   ?Subroutine6 & 0xFFFF
??CrossCallReturnLabel_8:
        MOV     A,#0x2
        LCALL   ?XSTACK_DISP0_8
        LCALL   ?Subroutine5 & 0xFFFF
//   98    zb_SendDataRequest(0X0,GET_KITCHEN_NODE_DATA_CMD_ID,osal_strlen(sensorData),sensorData,0,FALSE,AF_DEFAULT_RADIUS); //读取完mq2数据，接着发一个心跳包    
??CrossCallReturnLabel_5:
        LCALL   ?PUSH_XSTACK_I_ONE
        CFI CFA_XSP16 add(XSP16, 113)
        MOV     ?V0 + 0,#0x0
        MOV     R0,#?V0 + 0
        LCALL   ?PUSH_XSTACK_I_ONE
        CFI CFA_XSP16 add(XSP16, 114)
        MOV     R0,#?V0 + 0
        LCALL   ?PUSH_XSTACK_I_ONE
        CFI CFA_XSP16 add(XSP16, 115)
        MOV     A,#0x3
        LCALL   ?XSTACK_DISP0_8
        MOV     ?V0 + 0,DPL
        MOV     ?V0 + 1,DPH
        MOV     R0,#?V0 + 0
        LCALL   ?PUSH_XSTACK_I_TWO
        CFI CFA_XSP16 add(XSP16, 117)
        ; Setup parameters for call to function osal_strlen
        MOV     A,#0x5
        LCALL   ?XSTACK_DISP0_8
        MOV     R2,DPL
        MOV     R3,DPH
        LCALL   ??osal_strlen?relay
        MOV     A,R2
        MOV     R1,A
        MOV     R4,#0x2
        MOV     R5,#0x0
        MOV     R2,#0x0
        MOV     R3,#0x0
        LCALL   ??zb_SendDataRequest?relay
        MOV     A,#0x5
        LCALL   ?DEALLOC_XSTACK8
        CFI CFA_XSP16 add(XSP16, 112)
//   99    osal_start_timerEx(sapi_TaskID,READ_KITCHEN_SENSOR_DATA_EVENT,5000);//每四秒读取一次   
        ; Setup parameters for call to function osal_start_timerEx
        LCALL   ?Subroutine4 & 0xFFFF
//  100   }
//  101   
//  102   
//  103   if(event&HEART_BEAT_TIMEOUT_EVENT)
??CrossCallReturnLabel_10:
        MOV     A,R6
        MOV     C,0xE0 /* A   */.0
        JNC     ??CrossCallReturnLabel_12
//  104   {
//  105    zb_SendDataRequest(0X0,HEART_BEAT_CMD_ID,0,NULL,0,FALSE,AF_DEFAULT_RADIUS); 
        ; Setup parameters for call to function zb_SendDataRequest
        MOV     ?V0 + 0,#0x1e
        MOV     R0,#?V0 + 0
        LCALL   ?PUSH_XSTACK_I_ONE
        CFI CFA_XSP16 add(XSP16, 113)
        MOV     ?V0 + 0,#0x0
        MOV     R0,#?V0 + 0
        LCALL   ?PUSH_XSTACK_I_ONE
        CFI CFA_XSP16 add(XSP16, 114)
        MOV     R0,#?V0 + 0
        LCALL   ?PUSH_XSTACK_I_ONE
        CFI CFA_XSP16 add(XSP16, 115)
        CLR     A
        MOV     ?V0 + 1,A
        MOV     R0,#?V0 + 0
        LCALL   ?PUSH_XSTACK_I_TWO
        CFI CFA_XSP16 add(XSP16, 117)
        MOV     R1,#0x0
        MOV     R4,#0x4
        MOV     R5,#0x0
        MOV     R2,#0x0
        MOV     R3,#0x0
        LCALL   ??zb_SendDataRequest?relay
        MOV     A,#0x5
        LCALL   ?DEALLOC_XSTACK8
        CFI CFA_XSP16 add(XSP16, 112)
//  106    osal_start_timerEx(sapi_TaskID,HEART_BEAT_TIMEOUT_EVENT,5000);  
        ; Setup parameters for call to function osal_start_timerEx
        MOV     R4,#-0x78
        MOV     R5,#0x13
        MOV     R2,#0x1
//  107   }
??zb_HandleOsalEvent_2:
        LCALL   ??Subroutine7_0 & 0xFFFF
??CrossCallReturnLabel_12:
        MOV     A,#0x66
        LJMP    ?Subroutine1 & 0xFFFF
        CFI EndBlock cfiBlock17
//  108   
//  109 }

        RSEG BANKED_CODE:CODE:NOROOT(0)
?Subroutine5:
        CFI Block cfiCond18 Using cfiCommon0
        CFI NoFunction
        CFI Conditional ??CrossCallReturnLabel_4
        CFI R6 load(1, XDATA, add(CFA_XSP16, literal(-10)))
        CFI VB load(1, XDATA, add(CFA_XSP16, literal(-9)))
        CFI V0 load(1, XDATA, add(CFA_XSP16, literal(-8)))
        CFI V1 load(1, XDATA, add(CFA_XSP16, literal(-7)))
        CFI R7 load(1, XDATA, add(CFA_XSP16, literal(-6)))
        CFI ?RET_LOW load(1, XDATA, add(CFA_XSP16, literal(-5)))
        CFI ?RET_HIGH load(1, XDATA, add(CFA_XSP16, literal(-4)))
        CFI ?BRET_EXT load(1, XDATA, add(CFA_XSP16, literal(-3)))
        CFI DPL0 load(1, XDATA, add(CFA_XSP16, literal(-2)))
        CFI DPH0 load(1, XDATA, add(CFA_XSP16, literal(-1)))
        CFI CFA_SP SP+0
        CFI CFA_XSP16 add(XSP16, 95)
        CFI Block cfiCond19 Using cfiCommon0
        CFI (cfiCond19) NoFunction
        CFI (cfiCond19) Conditional ??CrossCallReturnLabel_5
        CFI (cfiCond19) R6 load(1, XDATA, add(CFA_XSP16, literal(-10)))
        CFI (cfiCond19) VB load(1, XDATA, add(CFA_XSP16, literal(-9)))
        CFI (cfiCond19) V0 load(1, XDATA, add(CFA_XSP16, literal(-8)))
        CFI (cfiCond19) V1 load(1, XDATA, add(CFA_XSP16, literal(-7)))
        CFI (cfiCond19) R7 load(1, XDATA, add(CFA_XSP16, literal(-6)))
        CFI (cfiCond19) ?RET_LOW load(1, XDATA, add(CFA_XSP16, literal(-5)))
        CFI (cfiCond19) ?RET_HIGH load(1, XDATA, add(CFA_XSP16, literal(-4)))
        CFI (cfiCond19) ?BRET_EXT load(1, XDATA, add(CFA_XSP16, literal(-3)))
        CFI (cfiCond19) DPL0 load(1, XDATA, add(CFA_XSP16, literal(-2)))
        CFI (cfiCond19) DPH0 load(1, XDATA, add(CFA_XSP16, literal(-1)))
        CFI (cfiCond19) CFA_SP SP+0
        CFI (cfiCond19) CFA_XSP16 add(XSP16, 112)
        CFI Block cfiPicker20 Using cfiCommon1
        CFI (cfiPicker20) NoFunction
        CFI (cfiPicker20) Picker
        MOV     R2,DPL
        MOV     R3,DPH
        MOV     R1,#0x0
        LCALL   ??HalUARTWrite?relay
        ; Setup parameters for call to function zb_SendDataRequest
        ; Setup parameters for call to function zb_SendDataRequest
        MOV     ?V0 + 0,#0x1e
        MOV     R0,#?V0 + 0
        RET
        CFI EndBlock cfiCond18
        CFI EndBlock cfiCond19
        CFI EndBlock cfiPicker20

        RSEG BANKED_CODE:CODE:NOROOT(0)
?Subroutine4:
        CFI Block cfiCond21 Using cfiCommon0
        CFI NoFunction
        CFI Conditional ??CrossCallReturnLabel_9
        CFI R6 load(1, XDATA, add(CFA_XSP16, literal(-10)))
        CFI VB load(1, XDATA, add(CFA_XSP16, literal(-9)))
        CFI V0 load(1, XDATA, add(CFA_XSP16, literal(-8)))
        CFI V1 load(1, XDATA, add(CFA_XSP16, literal(-7)))
        CFI R7 load(1, XDATA, add(CFA_XSP16, literal(-6)))
        CFI ?RET_LOW load(1, XDATA, add(CFA_XSP16, literal(-5)))
        CFI ?RET_HIGH load(1, XDATA, add(CFA_XSP16, literal(-4)))
        CFI ?BRET_EXT load(1, XDATA, add(CFA_XSP16, literal(-3)))
        CFI DPL0 load(1, XDATA, add(CFA_XSP16, literal(-2)))
        CFI DPH0 load(1, XDATA, add(CFA_XSP16, literal(-1)))
        CFI CFA_SP SP+0
        CFI CFA_XSP16 add(XSP16, 95)
        CFI Block cfiCond22 Using cfiCommon0
        CFI (cfiCond22) NoFunction
        CFI (cfiCond22) Conditional ??CrossCallReturnLabel_10
        CFI (cfiCond22) R6 load(1, XDATA, add(CFA_XSP16, literal(-10)))
        CFI (cfiCond22) VB load(1, XDATA, add(CFA_XSP16, literal(-9)))
        CFI (cfiCond22) V0 load(1, XDATA, add(CFA_XSP16, literal(-8)))
        CFI (cfiCond22) V1 load(1, XDATA, add(CFA_XSP16, literal(-7)))
        CFI (cfiCond22) R7 load(1, XDATA, add(CFA_XSP16, literal(-6)))
        CFI (cfiCond22) ?RET_LOW load(1, XDATA, add(CFA_XSP16, literal(-5)))
        CFI (cfiCond22) ?RET_HIGH load(1, XDATA, add(CFA_XSP16, literal(-4)))
        CFI (cfiCond22) ?BRET_EXT load(1, XDATA, add(CFA_XSP16, literal(-3)))
        CFI (cfiCond22) DPL0 load(1, XDATA, add(CFA_XSP16, literal(-2)))
        CFI (cfiCond22) DPH0 load(1, XDATA, add(CFA_XSP16, literal(-1)))
        CFI (cfiCond22) CFA_SP SP+0
        CFI (cfiCond22) CFA_XSP16 add(XSP16, 112)
        CFI Block cfiPicker23 Using cfiCommon1
        CFI (cfiPicker23) NoFunction
        CFI (cfiPicker23) Picker
        MOV     R4,#-0x78
        MOV     R5,#0x13
        MOV     R2,#0x2
        CFI EndBlock cfiCond21
        CFI EndBlock cfiCond22
        CFI EndBlock cfiPicker23
        REQUIRE ??Subroutine7_0
        ; // Fall through to label ??Subroutine7_0

        RSEG BANKED_CODE:CODE:NOROOT(0)
??Subroutine7_0:
        CFI Block cfiCond24 Using cfiCommon0
        CFI NoFunction
        CFI Conditional ??CrossCallReturnLabel_11
        CFI R6 load(1, XDATA, add(CFA_XSP16, literal(-10)))
        CFI VB load(1, XDATA, add(CFA_XSP16, literal(-9)))
        CFI V0 load(1, XDATA, add(CFA_XSP16, literal(-8)))
        CFI V1 load(1, XDATA, add(CFA_XSP16, literal(-7)))
        CFI R7 load(1, XDATA, add(CFA_XSP16, literal(-6)))
        CFI ?RET_LOW load(1, XDATA, add(CFA_XSP16, literal(-5)))
        CFI ?RET_HIGH load(1, XDATA, add(CFA_XSP16, literal(-4)))
        CFI ?BRET_EXT load(1, XDATA, add(CFA_XSP16, literal(-3)))
        CFI DPL0 load(1, XDATA, add(CFA_XSP16, literal(-2)))
        CFI DPH0 load(1, XDATA, add(CFA_XSP16, literal(-1)))
        CFI CFA_SP SP+0
        CFI CFA_XSP16 add(XSP16, 95)
        CFI Block cfiCond25 Using cfiCommon0
        CFI (cfiCond25) NoFunction
        CFI (cfiCond25) Conditional ??CrossCallReturnLabel_12
        CFI (cfiCond25) R6 load(1, XDATA, add(CFA_XSP16, literal(-10)))
        CFI (cfiCond25) VB load(1, XDATA, add(CFA_XSP16, literal(-9)))
        CFI (cfiCond25) V0 load(1, XDATA, add(CFA_XSP16, literal(-8)))
        CFI (cfiCond25) V1 load(1, XDATA, add(CFA_XSP16, literal(-7)))
        CFI (cfiCond25) R7 load(1, XDATA, add(CFA_XSP16, literal(-6)))
        CFI (cfiCond25) ?RET_LOW load(1, XDATA, add(CFA_XSP16, literal(-5)))
        CFI (cfiCond25) ?RET_HIGH load(1, XDATA, add(CFA_XSP16, literal(-4)))
        CFI (cfiCond25) ?BRET_EXT load(1, XDATA, add(CFA_XSP16, literal(-3)))
        CFI (cfiCond25) DPL0 load(1, XDATA, add(CFA_XSP16, literal(-2)))
        CFI (cfiCond25) DPH0 load(1, XDATA, add(CFA_XSP16, literal(-1)))
        CFI (cfiCond25) CFA_SP SP+0
        CFI (cfiCond25) CFA_XSP16 add(XSP16, 112)
        CFI Block cfiCond26 Using cfiCommon0
        CFI (cfiCond26) NoFunction
        CFI (cfiCond26) Conditional ??CrossCallReturnLabel_9
        CFI (cfiCond26) R6 load(1, XDATA, add(CFA_XSP16, literal(-10)))
        CFI (cfiCond26) VB load(1, XDATA, add(CFA_XSP16, literal(-9)))
        CFI (cfiCond26) V0 load(1, XDATA, add(CFA_XSP16, literal(-8)))
        CFI (cfiCond26) V1 load(1, XDATA, add(CFA_XSP16, literal(-7)))
        CFI (cfiCond26) R7 load(1, XDATA, add(CFA_XSP16, literal(-6)))
        CFI (cfiCond26) ?RET_LOW load(1, XDATA, add(CFA_XSP16, literal(-5)))
        CFI (cfiCond26) ?RET_HIGH load(1, XDATA, add(CFA_XSP16, literal(-4)))
        CFI (cfiCond26) ?BRET_EXT load(1, XDATA, add(CFA_XSP16, literal(-3)))
        CFI (cfiCond26) DPL0 load(1, XDATA, add(CFA_XSP16, literal(-2)))
        CFI (cfiCond26) DPH0 load(1, XDATA, add(CFA_XSP16, literal(-1)))
        CFI (cfiCond26) CFA_SP SP+0
        CFI (cfiCond26) CFA_XSP16 add(XSP16, 95)
        CFI Block cfiCond27 Using cfiCommon0
        CFI (cfiCond27) NoFunction
        CFI (cfiCond27) Conditional ??CrossCallReturnLabel_10
        CFI (cfiCond27) R6 load(1, XDATA, add(CFA_XSP16, literal(-10)))
        CFI (cfiCond27) VB load(1, XDATA, add(CFA_XSP16, literal(-9)))
        CFI (cfiCond27) V0 load(1, XDATA, add(CFA_XSP16, literal(-8)))
        CFI (cfiCond27) V1 load(1, XDATA, add(CFA_XSP16, literal(-7)))
        CFI (cfiCond27) R7 load(1, XDATA, add(CFA_XSP16, literal(-6)))
        CFI (cfiCond27) ?RET_LOW load(1, XDATA, add(CFA_XSP16, literal(-5)))
        CFI (cfiCond27) ?RET_HIGH load(1, XDATA, add(CFA_XSP16, literal(-4)))
        CFI (cfiCond27) ?BRET_EXT load(1, XDATA, add(CFA_XSP16, literal(-3)))
        CFI (cfiCond27) DPL0 load(1, XDATA, add(CFA_XSP16, literal(-2)))
        CFI (cfiCond27) DPH0 load(1, XDATA, add(CFA_XSP16, literal(-1)))
        CFI (cfiCond27) CFA_SP SP+0
        CFI (cfiCond27) CFA_XSP16 add(XSP16, 112)
        CFI Block cfiPicker28 Using cfiCommon1
        CFI (cfiPicker28) NoFunction
        CFI (cfiPicker28) Picker
        MOV     R3,#0x0
        MOV     DPTR,#sapi_TaskID
        MOVX    A,@DPTR
        MOV     R1,A
        LCALL   ??osal_start_timerEx?relay
        RET
        CFI EndBlock cfiCond24
        CFI EndBlock cfiCond25
        CFI EndBlock cfiCond26
        CFI EndBlock cfiCond27
        CFI EndBlock cfiPicker28
//  110 

        RSEG BANKED_CODE:CODE:NOROOT(0)
//  111 void zb_FindDeviceConfirm( uint8 searchType, 
zb_FindDeviceConfirm:
        CFI Block cfiBlock29 Using cfiCommon0
        CFI Function zb_FindDeviceConfirm
        CODE
//  112                           uint8 *searchKey, uint8 *result )
//  113 {
        ; Saved register size: 0
        ; Auto size: 0
//  114   
//  115 }
        LJMP    ?BRET
        CFI EndBlock cfiBlock29
//  116 /***********
//  117 执行时机：发送的数据包被接收方收到时被调用
//  118 handle:包的编号；
//  119 status:ZSUCCESS表示成功接收
//  120 ************/

        RSEG BANKED_CODE:CODE:NOROOT(0)
//  121 void zb_SendDataConfirm( uint8 handle, uint8 status )
zb_SendDataConfirm:
        CFI Block cfiBlock30 Using cfiCommon0
        CFI Function zb_SendDataConfirm
        CODE
//  122 {
        ; Saved register size: 0
        ; Auto size: 0
//  123   
//  124 }
        LJMP    ?BRET
        CFI EndBlock cfiBlock30
//  125 
//  126 /***********
//  127 执行时机：接收到的数据包被调用
//  128 ************/

        RSEG BANKED_CODE:CODE:NOROOT(0)
//  129 void zb_ReceiveDataIndication( uint16 source, uint16 command, 
zb_ReceiveDataIndication:
        CFI Block cfiBlock31 Using cfiCommon0
        CFI Function zb_ReceiveDataIndication
        CODE
//  130                               uint16 len, uint8 *pData  )
//  131 {
        ; Saved register size: 0
        ; Auto size: 0
//  132   
//  133 }
        LJMP    ?BRET
        CFI EndBlock cfiBlock31
//  134 
//  135 

        RSEG BANKED_CODE:CODE:NOROOT(0)
//  136 void zb_AllowBindConfirm( uint16 source )
zb_AllowBindConfirm:
        CFI Block cfiBlock32 Using cfiCommon0
        CFI Function zb_AllowBindConfirm
        CODE
//  137 {
        ; Saved register size: 0
        ; Auto size: 0
//  138 }
        LJMP    ?BRET
        CFI EndBlock cfiBlock32
//  139 

        RSEG BANKED_CODE:CODE:NOROOT(0)
//  140 void zb_HandleKeys( uint8 shift, uint8 keys )
zb_HandleKeys:
        CFI Block cfiBlock33 Using cfiCommon0
        CFI Function zb_HandleKeys
        CODE
//  141 {
        ; Saved register size: 0
        ; Auto size: 0
//  142   
//  143 }
        LJMP    ?BRET
        CFI EndBlock cfiBlock33
//  144 

        RSEG BANKED_CODE:CODE:NOROOT(0)
//  145 void zb_BindConfirm( uint16 commandId, uint8 status )
zb_BindConfirm:
        CFI Block cfiBlock34 Using cfiCommon0
        CFI Function zb_BindConfirm
        CODE
//  146 {
        ; Saved register size: 0
        ; Auto size: 0
//  147 }
        LJMP    ?BRET
        CFI EndBlock cfiBlock34

        RSEG XDATA_ID:CODE:NOROOT(0)
`?<Initializer for ledIdList>`:
        DATA8
        DB 1
        DB 2

        RSEG BANK_RELAYS:CODE:REORDER:NOROOT(0)
??readAdc?relay:
        LCALL   ?BDISPATCH
        DATA
        DC24    readAdc

        RSEG BANK_RELAYS:CODE:REORDER:NOROOT(0)
??GetMq2?relay:
        LCALL   ?BDISPATCH
        DATA
        DC24    GetMq2

        RSEG BANK_RELAYS:CODE:REORDER:NOROOT(0)
??GetMq7?relay:
        LCALL   ?BDISPATCH
        DATA
        DC24    GetMq7

        RSEG BANK_RELAYS:CODE:REORDER:NOROOT(0)
??zb_StartConfirm?relay:
        LCALL   ?BDISPATCH
        DATA
        DC24    zb_StartConfirm

        RSEG BANK_RELAYS:CODE:REORDER:NOROOT(0)
??zb_HandleOsalEvent?relay:
        LCALL   ?BDISPATCH
        DATA
        DC24    zb_HandleOsalEvent

        RSEG BANK_RELAYS:CODE:REORDER:NOROOT(0)
??zb_FindDeviceConfirm?relay:
        LCALL   ?BDISPATCH
        DATA
        DC24    zb_FindDeviceConfirm

        RSEG BANK_RELAYS:CODE:REORDER:NOROOT(0)
??zb_SendDataConfirm?relay:
        LCALL   ?BDISPATCH
        DATA
        DC24    zb_SendDataConfirm

        RSEG BANK_RELAYS:CODE:REORDER:NOROOT(0)
??zb_ReceiveDataIndication?relay:
        LCALL   ?BDISPATCH
        DATA
        DC24    zb_ReceiveDataIndication

        RSEG BANK_RELAYS:CODE:REORDER:NOROOT(0)
??zb_AllowBindConfirm?relay:
        LCALL   ?BDISPATCH
        DATA
        DC24    zb_AllowBindConfirm

        RSEG BANK_RELAYS:CODE:REORDER:NOROOT(0)
??zb_HandleKeys?relay:
        LCALL   ?BDISPATCH
        DATA
        DC24    zb_HandleKeys

        RSEG BANK_RELAYS:CODE:REORDER:NOROOT(0)
??zb_BindConfirm?relay:
        LCALL   ?BDISPATCH
        DATA
        DC24    zb_BindConfirm

        RSEG XDATA_ROM_C:CONST:REORDER:NOROOT(0)
        DATA8
`?<Constant "adcValue = %d,vol = %...">`:
        DB "adcValue = %d,vol = %.2f,mq2 = %.2f\015\012"

        RSEG XDATA_ROM_C:CONST:REORDER:NOROOT(0)
        DATA8
`?<Constant "adcValue = %d,vol = %...">_1`:
        DB "adcValue = %d,vol = %.2f, mq7  = %.2f\015\012"

        RSEG XDATA_ROM_C:CONST:REORDER:NOROOT(0)
        DATA8
`?<Constant "The kitchenNode is su...">`:
        DB 54H, 68H, 65H, 20H, 6BH, 69H, 74H, 63H
        DB 68H, 65H, 6EH, 4EH, 6FH, 64H, 65H, 20H
        DB 69H, 73H, 20H, 73H, 75H, 63H, 63H, 65H
        DB 73H, 73H, 66H, 75H, 6CH, 6CH, 79H, 20H
        DB 61H, 64H, 64H, 65H, 64H, 20H, 74H, 6FH
        DB 20H, 74H, 68H, 65H, 20H, 6EH, 65H, 74H
        DB 77H, 6FH, 72H, 6BH, 21H, 0DH, 0AH, 0

        RSEG XDATA_ROM_C:CONST:REORDER:NOROOT(0)
        DATA16
`?<Constant {0}>`:
        DATA8
        DB 0
        DB 0

        RSEG XDATA_ROM_C:CONST:REORDER:NOROOT(0)
        DATA8
`?<Constant "Carbon = %d,Smoke = %d\\r\\n">`:
        DB "Carbon = %d,Smoke = %d\015\012"

        RSEG XDATA_ROM_C:CONST:REORDER:NOROOT(0)
        DATA32
__Constant_45fff800:
        DD 45FFF800H

        RSEG XDATA_ROM_C:CONST:REORDER:NOROOT(0)
        DATA32
__Constant_40533333:
        DD 40533333H

        RSEG XDATA_ROM_C:CONST:REORDER:NOROOT(0)
        DATA32
__Constant_bf99999a:
        DD 0BF99999AH

        RSEG XDATA_ROM_C:CONST:REORDER:NOROOT(0)
        DATA32
__Constant_42c80000:
        DD 42C80000H

        RSEG XDATA_ROM_C:CONST:REORDER:NOROOT(0)
        DATA32
__Constant_40066666:
        DD 40066666H

        RSEG XDATA_ROM_C:CONST:REORDER:NOROOT(0)
        DATA32
__Constant_41200000:
        DD 41200000H

        RSEG XDATA_ROM_C:CONST:REORDER:NOROOT(0)
        DATA32
__Constant_42c80001:
        DD 42C80001H

        RSEG XDATA_ROM_C:CONST:REORDER:NOROOT(0)
        DATA32
__Constant_40a00000:
        DD 40A00000H

        RSEG XDATA_ROM_C:CONST:REORDER:NOROOT(0)
        DATA32
__Constant_bff33333:
        DD 0BFF33333H

        END
// 
// 1 006 bytes in segment BANKED_CODE
//    66 bytes in segment BANK_RELAYS
//     5 bytes in segment SFR_AN
//     2 bytes in segment XDATA_I
//     2 bytes in segment XDATA_ID
//   227 bytes in segment XDATA_ROM_C
// 
// 1 074 bytes of CODE  memory
//   191 bytes of CONST memory (+ 36 bytes shared)
//     0 bytes of DATA  memory (+  5 bytes shared)
//     2 bytes of XDATA memory
//
//Errors: none
//Warnings: 7
